
SAMD Binary Counter.elf:     file format elf32-littlearm

Sections:
Idx Name          Size      VMA       LMA       File off  Algn
  0 .text         000045a0  00000000  00000000  00010000  2**2
                  CONTENTS, ALLOC, LOAD, READONLY, CODE
  1 .relocate     00000248  20000000  000045a0  00020000  2**2
                  CONTENTS, ALLOC, LOAD, DATA
  2 .bss          00000438  20000248  000047e8  00020248  2**2
                  ALLOC
  3 .stack        00000400  20000680  00004c20  00020248  2**0
                  ALLOC
  4 .ARM.attributes 00000028  00000000  00000000  00020248  2**0
                  CONTENTS, READONLY
  5 .comment      00000059  00000000  00000000  00020270  2**0
                  CONTENTS, READONLY
  6 .debug_info   000220d0  00000000  00000000  000202c9  2**0
                  CONTENTS, READONLY, DEBUGGING
  7 .debug_abbrev 000034fb  00000000  00000000  00042399  2**0
                  CONTENTS, READONLY, DEBUGGING
  8 .debug_loc    0000a8c1  00000000  00000000  00045894  2**0
                  CONTENTS, READONLY, DEBUGGING
  9 .debug_aranges 00000728  00000000  00000000  00050155  2**0
                  CONTENTS, READONLY, DEBUGGING
 10 .debug_ranges 00000c18  00000000  00000000  0005087d  2**0
                  CONTENTS, READONLY, DEBUGGING
 11 .debug_macro  000195ee  00000000  00000000  00051495  2**0
                  CONTENTS, READONLY, DEBUGGING
 12 .debug_line   0000de47  00000000  00000000  0006aa83  2**0
                  CONTENTS, READONLY, DEBUGGING
 13 .debug_str    00082e0f  00000000  00000000  000788ca  2**0
                  CONTENTS, READONLY, DEBUGGING
 14 .debug_frame  00001764  00000000  00000000  000fb6dc  2**2
                  CONTENTS, READONLY, DEBUGGING

Disassembly of section .text:

00000000 <exception_table>:
       0:	80 0a 00 20 25 01 00 00 21 01 00 00 21 01 00 00     ... %...!...!...
	...
      2c:	21 01 00 00 00 00 00 00 00 00 00 00 21 01 00 00     !...........!...
      3c:	21 01 00 00 21 01 00 00 21 01 00 00 21 01 00 00     !...!...!...!...
      4c:	21 01 00 00 21 01 00 00 21 01 00 00 21 01 00 00     !...!...!...!...
      5c:	d5 1c 00 00 21 01 00 00 21 01 00 00 21 01 00 00     ....!...!...!...
      6c:	21 01 00 00 21 01 00 00 00 00 00 00 00 00 00 00     !...!...........
      7c:	21 01 00 00 21 01 00 00 21 01 00 00 21 01 00 00     !...!...!...!...
      8c:	21 01 00 00 21 01 00 00 00 00 00 00 00 00 00 00     !...!...........
      9c:	21 01 00 00 21 01 00 00 21 01 00 00 21 01 00 00     !...!...!...!...
      ac:	21 01 00 00 00 00 00 00                             !.......

000000b4 <__do_global_dtors_aux>:
      b4:	b510      	push	{r4, lr}
      b6:	4c06      	ldr	r4, [pc, #24]	; (d0 <__do_global_dtors_aux+0x1c>)
      b8:	7823      	ldrb	r3, [r4, #0]
      ba:	2b00      	cmp	r3, #0
      bc:	d107      	bne.n	ce <__do_global_dtors_aux+0x1a>
      be:	4b05      	ldr	r3, [pc, #20]	; (d4 <__do_global_dtors_aux+0x20>)
      c0:	2b00      	cmp	r3, #0
      c2:	d002      	beq.n	ca <__do_global_dtors_aux+0x16>
      c4:	4804      	ldr	r0, [pc, #16]	; (d8 <__do_global_dtors_aux+0x24>)
      c6:	e000      	b.n	ca <__do_global_dtors_aux+0x16>
      c8:	bf00      	nop
      ca:	2301      	movs	r3, #1
      cc:	7023      	strb	r3, [r4, #0]
      ce:	bd10      	pop	{r4, pc}
      d0:	20000248 	.word	0x20000248
      d4:	00000000 	.word	0x00000000
      d8:	000045a0 	.word	0x000045a0

000000dc <frame_dummy>:
      dc:	4b08      	ldr	r3, [pc, #32]	; (100 <frame_dummy+0x24>)
      de:	b510      	push	{r4, lr}
      e0:	2b00      	cmp	r3, #0
      e2:	d003      	beq.n	ec <frame_dummy+0x10>
      e4:	4907      	ldr	r1, [pc, #28]	; (104 <frame_dummy+0x28>)
      e6:	4808      	ldr	r0, [pc, #32]	; (108 <frame_dummy+0x2c>)
      e8:	e000      	b.n	ec <frame_dummy+0x10>
      ea:	bf00      	nop
      ec:	4807      	ldr	r0, [pc, #28]	; (10c <frame_dummy+0x30>)
      ee:	6803      	ldr	r3, [r0, #0]
      f0:	2b00      	cmp	r3, #0
      f2:	d100      	bne.n	f6 <frame_dummy+0x1a>
      f4:	bd10      	pop	{r4, pc}
      f6:	4b06      	ldr	r3, [pc, #24]	; (110 <frame_dummy+0x34>)
      f8:	2b00      	cmp	r3, #0
      fa:	d0fb      	beq.n	f4 <frame_dummy+0x18>
      fc:	4798      	blx	r3
      fe:	e7f9      	b.n	f4 <frame_dummy+0x18>
     100:	00000000 	.word	0x00000000
     104:	2000024c 	.word	0x2000024c
     108:	000045a0 	.word	0x000045a0
     10c:	000045a0 	.word	0x000045a0
     110:	00000000 	.word	0x00000000

00000114 <atmel_start_init>:
     114:	b510      	push	{r4, lr}
     116:	4b01      	ldr	r3, [pc, #4]	; (11c <atmel_start_init+0x8>)
     118:	4798      	blx	r3
     11a:	bd10      	pop	{r4, pc}
     11c:	000002d5 	.word	0x000002d5

00000120 <Dummy_Handler>:
     120:	e7fe      	b.n	120 <Dummy_Handler>
	...

00000124 <Reset_Handler>:
     124:	b5f8      	push	{r3, r4, r5, r6, r7, lr}
     126:	4a2a      	ldr	r2, [pc, #168]	; (1d0 <Reset_Handler+0xac>)
     128:	4b2a      	ldr	r3, [pc, #168]	; (1d4 <Reset_Handler+0xb0>)
     12a:	429a      	cmp	r2, r3
     12c:	d011      	beq.n	152 <Reset_Handler+0x2e>
     12e:	001a      	movs	r2, r3
     130:	4b29      	ldr	r3, [pc, #164]	; (1d8 <Reset_Handler+0xb4>)
     132:	429a      	cmp	r2, r3
     134:	d20d      	bcs.n	152 <Reset_Handler+0x2e>
     136:	4a29      	ldr	r2, [pc, #164]	; (1dc <Reset_Handler+0xb8>)
     138:	3303      	adds	r3, #3
     13a:	1a9b      	subs	r3, r3, r2
     13c:	089b      	lsrs	r3, r3, #2
     13e:	3301      	adds	r3, #1
     140:	009b      	lsls	r3, r3, #2
     142:	2200      	movs	r2, #0
     144:	4823      	ldr	r0, [pc, #140]	; (1d4 <Reset_Handler+0xb0>)
     146:	4922      	ldr	r1, [pc, #136]	; (1d0 <Reset_Handler+0xac>)
     148:	588c      	ldr	r4, [r1, r2]
     14a:	5084      	str	r4, [r0, r2]
     14c:	3204      	adds	r2, #4
     14e:	429a      	cmp	r2, r3
     150:	d1fa      	bne.n	148 <Reset_Handler+0x24>
     152:	4a23      	ldr	r2, [pc, #140]	; (1e0 <Reset_Handler+0xbc>)
     154:	4b23      	ldr	r3, [pc, #140]	; (1e4 <Reset_Handler+0xc0>)
     156:	429a      	cmp	r2, r3
     158:	d20a      	bcs.n	170 <Reset_Handler+0x4c>
     15a:	43d3      	mvns	r3, r2
     15c:	4921      	ldr	r1, [pc, #132]	; (1e4 <Reset_Handler+0xc0>)
     15e:	185b      	adds	r3, r3, r1
     160:	2103      	movs	r1, #3
     162:	438b      	bics	r3, r1
     164:	3304      	adds	r3, #4
     166:	189b      	adds	r3, r3, r2
     168:	2100      	movs	r1, #0
     16a:	c202      	stmia	r2!, {r1}
     16c:	4293      	cmp	r3, r2
     16e:	d1fc      	bne.n	16a <Reset_Handler+0x46>
     170:	4a1d      	ldr	r2, [pc, #116]	; (1e8 <Reset_Handler+0xc4>)
     172:	21ff      	movs	r1, #255	; 0xff
     174:	4b1d      	ldr	r3, [pc, #116]	; (1ec <Reset_Handler+0xc8>)
     176:	438b      	bics	r3, r1
     178:	6093      	str	r3, [r2, #8]
     17a:	39fd      	subs	r1, #253	; 0xfd
     17c:	2390      	movs	r3, #144	; 0x90
     17e:	005b      	lsls	r3, r3, #1
     180:	4a1b      	ldr	r2, [pc, #108]	; (1f0 <Reset_Handler+0xcc>)
     182:	50d1      	str	r1, [r2, r3]
     184:	4a1b      	ldr	r2, [pc, #108]	; (1f4 <Reset_Handler+0xd0>)
     186:	78d3      	ldrb	r3, [r2, #3]
     188:	2503      	movs	r5, #3
     18a:	43ab      	bics	r3, r5
     18c:	2402      	movs	r4, #2
     18e:	4323      	orrs	r3, r4
     190:	70d3      	strb	r3, [r2, #3]
     192:	78d3      	ldrb	r3, [r2, #3]
     194:	270c      	movs	r7, #12
     196:	43bb      	bics	r3, r7
     198:	2608      	movs	r6, #8
     19a:	4333      	orrs	r3, r6
     19c:	70d3      	strb	r3, [r2, #3]
     19e:	4b16      	ldr	r3, [pc, #88]	; (1f8 <Reset_Handler+0xd4>)
     1a0:	7b98      	ldrb	r0, [r3, #14]
     1a2:	2230      	movs	r2, #48	; 0x30
     1a4:	4390      	bics	r0, r2
     1a6:	2220      	movs	r2, #32
     1a8:	4310      	orrs	r0, r2
     1aa:	7398      	strb	r0, [r3, #14]
     1ac:	7b99      	ldrb	r1, [r3, #14]
     1ae:	43b9      	bics	r1, r7
     1b0:	4331      	orrs	r1, r6
     1b2:	7399      	strb	r1, [r3, #14]
     1b4:	7b9a      	ldrb	r2, [r3, #14]
     1b6:	43aa      	bics	r2, r5
     1b8:	4322      	orrs	r2, r4
     1ba:	739a      	strb	r2, [r3, #14]
     1bc:	4a0f      	ldr	r2, [pc, #60]	; (1fc <Reset_Handler+0xd8>)
     1be:	6853      	ldr	r3, [r2, #4]
     1c0:	2180      	movs	r1, #128	; 0x80
     1c2:	430b      	orrs	r3, r1
     1c4:	6053      	str	r3, [r2, #4]
     1c6:	4b0e      	ldr	r3, [pc, #56]	; (200 <Reset_Handler+0xdc>)
     1c8:	4798      	blx	r3
     1ca:	4b0e      	ldr	r3, [pc, #56]	; (204 <Reset_Handler+0xe0>)
     1cc:	4798      	blx	r3
     1ce:	e7fe      	b.n	1ce <Reset_Handler+0xaa>
     1d0:	000045a0 	.word	0x000045a0
     1d4:	20000000 	.word	0x20000000
     1d8:	20000248 	.word	0x20000248
     1dc:	20000004 	.word	0x20000004
     1e0:	20000248 	.word	0x20000248
     1e4:	20000680 	.word	0x20000680
     1e8:	e000ed00 	.word	0xe000ed00
     1ec:	00000000 	.word	0x00000000
     1f0:	41007000 	.word	0x41007000
     1f4:	41005000 	.word	0x41005000
     1f8:	41004800 	.word	0x41004800
     1fc:	41004000 	.word	0x41004000
     200:	00003479 	.word	0x00003479
     204:	00001f11 	.word	0x00001f11

00000208 <USB_0_PORT_init>:
     208:	b5f0      	push	{r4, r5, r6, r7, lr}
     20a:	46c6      	mov	lr, r8
     20c:	b500      	push	{lr}
     20e:	24c0      	movs	r4, #192	; 0xc0
     210:	05e4      	lsls	r4, r4, #23
     212:	2280      	movs	r2, #128	; 0x80
     214:	0452      	lsls	r2, r2, #17
     216:	60a2      	str	r2, [r4, #8]
     218:	4b1a      	ldr	r3, [pc, #104]	; (284 <USB_0_PORT_init+0x7c>)
     21a:	2780      	movs	r7, #128	; 0x80
     21c:	05ff      	lsls	r7, r7, #23
     21e:	629f      	str	r7, [r3, #40]	; 0x28
     220:	4919      	ldr	r1, [pc, #100]	; (288 <USB_0_PORT_init+0x80>)
     222:	6299      	str	r1, [r3, #40]	; 0x28
     224:	6162      	str	r2, [r4, #20]
     226:	2058      	movs	r0, #88	; 0x58
     228:	5c19      	ldrb	r1, [r3, r0]
     22a:	2204      	movs	r2, #4
     22c:	4690      	mov	r8, r2
     22e:	4391      	bics	r1, r2
     230:	5419      	strb	r1, [r3, r0]
     232:	5c19      	ldrb	r1, [r3, r0]
     234:	2601      	movs	r6, #1
     236:	43b1      	bics	r1, r6
     238:	2501      	movs	r5, #1
     23a:	4329      	orrs	r1, r5
     23c:	b2c9      	uxtb	r1, r1
     23e:	5419      	strb	r1, [r3, r0]
     240:	381c      	subs	r0, #28
     242:	5c19      	ldrb	r1, [r3, r0]
     244:	320b      	adds	r2, #11
     246:	4391      	bics	r1, r2
     248:	3a09      	subs	r2, #9
     24a:	4311      	orrs	r1, r2
     24c:	5419      	strb	r1, [r3, r0]
     24e:	2180      	movs	r1, #128	; 0x80
     250:	0489      	lsls	r1, r1, #18
     252:	60a1      	str	r1, [r4, #8]
     254:	629f      	str	r7, [r3, #40]	; 0x28
     256:	4f0d      	ldr	r7, [pc, #52]	; (28c <USB_0_PORT_init+0x84>)
     258:	629f      	str	r7, [r3, #40]	; 0x28
     25a:	6161      	str	r1, [r4, #20]
     25c:	2159      	movs	r1, #89	; 0x59
     25e:	5c5c      	ldrb	r4, [r3, r1]
     260:	4642      	mov	r2, r8
     262:	4394      	bics	r4, r2
     264:	545c      	strb	r4, [r3, r1]
     266:	5c5a      	ldrb	r2, [r3, r1]
     268:	43b2      	bics	r2, r6
     26a:	432a      	orrs	r2, r5
     26c:	b2d2      	uxtb	r2, r2
     26e:	545a      	strb	r2, [r3, r1]
     270:	5c1a      	ldrb	r2, [r3, r0]
     272:	394a      	subs	r1, #74	; 0x4a
     274:	400a      	ands	r2, r1
     276:	3151      	adds	r1, #81	; 0x51
     278:	430a      	orrs	r2, r1
     27a:	541a      	strb	r2, [r3, r0]
     27c:	bc04      	pop	{r2}
     27e:	4690      	mov	r8, r2
     280:	bdf0      	pop	{r4, r5, r6, r7, pc}
     282:	46c0      	nop			; (mov r8, r8)
     284:	41004400 	.word	0x41004400
     288:	c0000100 	.word	0xc0000100
     28c:	c0000200 	.word	0xc0000200

00000290 <USB_0_CLOCK_init>:
     290:	4b06      	ldr	r3, [pc, #24]	; (2ac <USB_0_CLOCK_init+0x1c>)
     292:	69da      	ldr	r2, [r3, #28]
     294:	2120      	movs	r1, #32
     296:	430a      	orrs	r2, r1
     298:	61da      	str	r2, [r3, #28]
     29a:	695a      	ldr	r2, [r3, #20]
     29c:	3120      	adds	r1, #32
     29e:	430a      	orrs	r2, r1
     2a0:	615a      	str	r2, [r3, #20]
     2a2:	4a03      	ldr	r2, [pc, #12]	; (2b0 <USB_0_CLOCK_init+0x20>)
     2a4:	4b03      	ldr	r3, [pc, #12]	; (2b4 <USB_0_CLOCK_init+0x24>)
     2a6:	805a      	strh	r2, [r3, #2]
     2a8:	4770      	bx	lr
     2aa:	46c0      	nop			; (mov r8, r8)
     2ac:	40000400 	.word	0x40000400
     2b0:	00004006 	.word	0x00004006
     2b4:	40000c00 	.word	0x40000c00

000002b8 <USB_0_init>:
     2b8:	b510      	push	{r4, lr}
     2ba:	4b03      	ldr	r3, [pc, #12]	; (2c8 <USB_0_init+0x10>)
     2bc:	4798      	blx	r3
     2be:	4b03      	ldr	r3, [pc, #12]	; (2cc <USB_0_init+0x14>)
     2c0:	4798      	blx	r3
     2c2:	4b03      	ldr	r3, [pc, #12]	; (2d0 <USB_0_init+0x18>)
     2c4:	4798      	blx	r3
     2c6:	bd10      	pop	{r4, pc}
     2c8:	00000291 	.word	0x00000291
     2cc:	000006c1 	.word	0x000006c1
     2d0:	00000209 	.word	0x00000209

000002d4 <system_init>:
     2d4:	b570      	push	{r4, r5, r6, lr}
     2d6:	4b40      	ldr	r3, [pc, #256]	; (3d8 <system_init+0x104>)
     2d8:	4798      	blx	r3
     2da:	22c0      	movs	r2, #192	; 0xc0
     2dc:	05d2      	lsls	r2, r2, #23
     2de:	2101      	movs	r1, #1
     2e0:	6151      	str	r1, [r2, #20]
     2e2:	6091      	str	r1, [r2, #8]
     2e4:	4b3d      	ldr	r3, [pc, #244]	; (3dc <system_init+0x108>)
     2e6:	483e      	ldr	r0, [pc, #248]	; (3e0 <system_init+0x10c>)
     2e8:	6298      	str	r0, [r3, #40]	; 0x28
     2ea:	20c0      	movs	r0, #192	; 0xc0
     2ec:	0600      	lsls	r0, r0, #24
     2ee:	6298      	str	r0, [r3, #40]	; 0x28
     2f0:	2440      	movs	r4, #64	; 0x40
     2f2:	5d1d      	ldrb	r5, [r3, r4]
     2f4:	438d      	bics	r5, r1
     2f6:	551d      	strb	r5, [r3, r4]
     2f8:	2502      	movs	r5, #2
     2fa:	6155      	str	r5, [r2, #20]
     2fc:	6095      	str	r5, [r2, #8]
     2fe:	4d39      	ldr	r5, [pc, #228]	; (3e4 <system_init+0x110>)
     300:	629d      	str	r5, [r3, #40]	; 0x28
     302:	6298      	str	r0, [r3, #40]	; 0x28
     304:	2641      	movs	r6, #65	; 0x41
     306:	5d9d      	ldrb	r5, [r3, r6]
     308:	438d      	bics	r5, r1
     30a:	559d      	strb	r5, [r3, r6]
     30c:	2504      	movs	r5, #4
     30e:	6155      	str	r5, [r2, #20]
     310:	6095      	str	r5, [r2, #8]
     312:	4d35      	ldr	r5, [pc, #212]	; (3e8 <system_init+0x114>)
     314:	629d      	str	r5, [r3, #40]	; 0x28
     316:	6298      	str	r0, [r3, #40]	; 0x28
     318:	3601      	adds	r6, #1
     31a:	5d9d      	ldrb	r5, [r3, r6]
     31c:	438d      	bics	r5, r1
     31e:	559d      	strb	r5, [r3, r6]
     320:	2508      	movs	r5, #8
     322:	6155      	str	r5, [r2, #20]
     324:	6095      	str	r5, [r2, #8]
     326:	4d31      	ldr	r5, [pc, #196]	; (3ec <system_init+0x118>)
     328:	629d      	str	r5, [r3, #40]	; 0x28
     32a:	6298      	str	r0, [r3, #40]	; 0x28
     32c:	3601      	adds	r6, #1
     32e:	5d9d      	ldrb	r5, [r3, r6]
     330:	438d      	bics	r5, r1
     332:	559d      	strb	r5, [r3, r6]
     334:	2510      	movs	r5, #16
     336:	6155      	str	r5, [r2, #20]
     338:	6095      	str	r5, [r2, #8]
     33a:	4d2d      	ldr	r5, [pc, #180]	; (3f0 <system_init+0x11c>)
     33c:	629d      	str	r5, [r3, #40]	; 0x28
     33e:	6298      	str	r0, [r3, #40]	; 0x28
     340:	3601      	adds	r6, #1
     342:	5d9d      	ldrb	r5, [r3, r6]
     344:	438d      	bics	r5, r1
     346:	559d      	strb	r5, [r3, r6]
     348:	2520      	movs	r5, #32
     34a:	6155      	str	r5, [r2, #20]
     34c:	6095      	str	r5, [r2, #8]
     34e:	4d29      	ldr	r5, [pc, #164]	; (3f4 <system_init+0x120>)
     350:	629d      	str	r5, [r3, #40]	; 0x28
     352:	6298      	str	r0, [r3, #40]	; 0x28
     354:	3601      	adds	r6, #1
     356:	5d9d      	ldrb	r5, [r3, r6]
     358:	438d      	bics	r5, r1
     35a:	559d      	strb	r5, [r3, r6]
     35c:	6154      	str	r4, [r2, #20]
     35e:	6094      	str	r4, [r2, #8]
     360:	4c25      	ldr	r4, [pc, #148]	; (3f8 <system_init+0x124>)
     362:	629c      	str	r4, [r3, #40]	; 0x28
     364:	6298      	str	r0, [r3, #40]	; 0x28
     366:	2546      	movs	r5, #70	; 0x46
     368:	5d5c      	ldrb	r4, [r3, r5]
     36a:	438c      	bics	r4, r1
     36c:	555c      	strb	r4, [r3, r5]
     36e:	2480      	movs	r4, #128	; 0x80
     370:	6154      	str	r4, [r2, #20]
     372:	6094      	str	r4, [r2, #8]
     374:	4c21      	ldr	r4, [pc, #132]	; (3fc <system_init+0x128>)
     376:	629c      	str	r4, [r3, #40]	; 0x28
     378:	6298      	str	r0, [r3, #40]	; 0x28
     37a:	3501      	adds	r5, #1
     37c:	5d5c      	ldrb	r4, [r3, r5]
     37e:	438c      	bics	r4, r1
     380:	555c      	strb	r4, [r3, r5]
     382:	2480      	movs	r4, #128	; 0x80
     384:	0064      	lsls	r4, r4, #1
     386:	6154      	str	r4, [r2, #20]
     388:	6094      	str	r4, [r2, #8]
     38a:	4c1d      	ldr	r4, [pc, #116]	; (400 <STACK_SIZE>)
     38c:	629c      	str	r4, [r3, #40]	; 0x28
     38e:	6298      	str	r0, [r3, #40]	; 0x28
     390:	3501      	adds	r5, #1
     392:	5d5c      	ldrb	r4, [r3, r5]
     394:	438c      	bics	r4, r1
     396:	555c      	strb	r4, [r3, r5]
     398:	2480      	movs	r4, #128	; 0x80
     39a:	00a4      	lsls	r4, r4, #2
     39c:	6154      	str	r4, [r2, #20]
     39e:	6094      	str	r4, [r2, #8]
     3a0:	4c18      	ldr	r4, [pc, #96]	; (404 <STACK_SIZE+0x4>)
     3a2:	629c      	str	r4, [r3, #40]	; 0x28
     3a4:	6298      	str	r0, [r3, #40]	; 0x28
     3a6:	2449      	movs	r4, #73	; 0x49
     3a8:	5d18      	ldrb	r0, [r3, r4]
     3aa:	4388      	bics	r0, r1
     3ac:	5518      	strb	r0, [r3, r4]
     3ae:	2480      	movs	r4, #128	; 0x80
     3b0:	0264      	lsls	r4, r4, #9
     3b2:	6054      	str	r4, [r2, #4]
     3b4:	4814      	ldr	r0, [pc, #80]	; (408 <STACK_SIZE+0x8>)
     3b6:	6298      	str	r0, [r3, #40]	; 0x28
     3b8:	4814      	ldr	r0, [pc, #80]	; (40c <STACK_SIZE+0xc>)
     3ba:	6298      	str	r0, [r3, #40]	; 0x28
     3bc:	6054      	str	r4, [r2, #4]
     3be:	2050      	movs	r0, #80	; 0x50
     3c0:	5c1d      	ldrb	r5, [r3, r0]
     3c2:	3e41      	subs	r6, #65	; 0x41
     3c4:	4335      	orrs	r5, r6
     3c6:	541d      	strb	r5, [r3, r0]
     3c8:	6194      	str	r4, [r2, #24]
     3ca:	5c1a      	ldrb	r2, [r3, r0]
     3cc:	438a      	bics	r2, r1
     3ce:	541a      	strb	r2, [r3, r0]
     3d0:	4b0f      	ldr	r3, [pc, #60]	; (410 <STACK_SIZE+0x10>)
     3d2:	4798      	blx	r3
     3d4:	bd70      	pop	{r4, r5, r6, pc}
     3d6:	46c0      	nop			; (mov r8, r8)
     3d8:	00000ac9 	.word	0x00000ac9
     3dc:	41004400 	.word	0x41004400
     3e0:	40000001 	.word	0x40000001
     3e4:	40000002 	.word	0x40000002
     3e8:	40000004 	.word	0x40000004
     3ec:	40000008 	.word	0x40000008
     3f0:	40000010 	.word	0x40000010
     3f4:	40000020 	.word	0x40000020
     3f8:	40000040 	.word	0x40000040
     3fc:	40000080 	.word	0x40000080
     400:	40000100 	.word	0x40000100
     404:	40000200 	.word	0x40000200
     408:	40020000 	.word	0x40020000
     40c:	c0020001 	.word	0xc0020001
     410:	000002b9 	.word	0x000002b9

00000414 <atomic_enter_critical>:
 */
__STATIC_FORCEINLINE uint32_t __get_PRIMASK(void)
{
  uint32_t result;

  __ASM volatile ("MRS %0, primask" : "=r" (result) :: "memory");
     414:	f3ef 8310 	mrs	r3, PRIMASK
     418:	6003      	str	r3, [r0, #0]
  __ASM volatile ("cpsid i" : : : "memory");
     41a:	b672      	cpsid	i
  \details Ensures the apparent order of the explicit memory operations before
           and after the instruction, without ensuring their completion.
 */
__STATIC_FORCEINLINE void __DMB(void)
{
  __ASM volatile ("dmb 0xF":::"memory");
     41c:	f3bf 8f5f 	dmb	sy
     420:	4770      	bx	lr

00000422 <atomic_leave_critical>:
     422:	f3bf 8f5f 	dmb	sy
     426:	6803      	ldr	r3, [r0, #0]
  __ASM volatile ("MSR primask, %0" : : "r" (priMask) : "memory");
     428:	f383 8810 	msr	PRIMASK, r3
     42c:	4770      	bx	lr
	...

00000430 <delay_ms>:
     430:	b510      	push	{r4, lr}
     432:	4b04      	ldr	r3, [pc, #16]	; (444 <delay_ms+0x14>)
     434:	681c      	ldr	r4, [r3, #0]
     436:	4b04      	ldr	r3, [pc, #16]	; (448 <delay_ms+0x18>)
     438:	4798      	blx	r3
     43a:	0001      	movs	r1, r0
     43c:	0020      	movs	r0, r4
     43e:	4b03      	ldr	r3, [pc, #12]	; (44c <delay_ms+0x1c>)
     440:	4798      	blx	r3
     442:	bd10      	pop	{r4, pc}
     444:	20000264 	.word	0x20000264
     448:	00000aa5 	.word	0x00000aa5
     44c:	00000ac1 	.word	0x00000ac1

00000450 <_usb_d_find_ep>:
     450:	b5f0      	push	{r4, r5, r6, r7, lr}
     452:	0004      	movs	r4, r0
     454:	4b0e      	ldr	r3, [pc, #56]	; (490 <_usb_d_find_ep+0x40>)
     456:	785a      	ldrb	r2, [r3, #1]
     458:	4290      	cmp	r0, r2
     45a:	d017      	beq.n	48c <_usb_d_find_ep+0x3c>
     45c:	2300      	movs	r3, #0
     45e:	2000      	movs	r0, #0
     460:	4f0b      	ldr	r7, [pc, #44]	; (490 <_usb_d_find_ep+0x40>)
     462:	260f      	movs	r6, #15
     464:	4026      	ands	r6, r4
     466:	003d      	movs	r5, r7
     468:	e008      	b.n	47c <_usb_d_find_ep+0x2c>
     46a:	3001      	adds	r0, #1
     46c:	b240      	sxtb	r0, r0
     46e:	2804      	cmp	r0, #4
     470:	d00a      	beq.n	488 <_usb_d_find_ep+0x38>
     472:	3320      	adds	r3, #32
     474:	18ea      	adds	r2, r5, r3
     476:	7852      	ldrb	r2, [r2, #1]
     478:	42a2      	cmp	r2, r4
     47a:	d006      	beq.n	48a <_usb_d_find_ep+0x3a>
     47c:	5dd9      	ldrb	r1, [r3, r7]
     47e:	2900      	cmp	r1, #0
     480:	d1f3      	bne.n	46a <_usb_d_find_ep+0x1a>
     482:	4296      	cmp	r6, r2
     484:	d1f1      	bne.n	46a <_usb_d_find_ep+0x1a>
     486:	e000      	b.n	48a <_usb_d_find_ep+0x3a>
     488:	3805      	subs	r0, #5
     48a:	bdf0      	pop	{r4, r5, r6, r7, pc}
     48c:	2000      	movs	r0, #0
     48e:	e7fc      	b.n	48a <_usb_d_find_ep+0x3a>
     490:	20000268 	.word	0x20000268

00000494 <usb_d_dummy_cb_false>:
     494:	2000      	movs	r0, #0
     496:	4770      	bx	lr

00000498 <usb_d_cb_trans_more>:
     498:	b570      	push	{r4, r5, r6, lr}
     49a:	0004      	movs	r4, r0
     49c:	000d      	movs	r5, r1
     49e:	4b0a      	ldr	r3, [pc, #40]	; (4c8 <usb_d_cb_trans_more+0x30>)
     4a0:	4798      	blx	r3
     4a2:	0142      	lsls	r2, r0, #5
     4a4:	4b09      	ldr	r3, [pc, #36]	; (4cc <usb_d_cb_trans_more+0x34>)
     4a6:	189b      	adds	r3, r3, r2
     4a8:	789a      	ldrb	r2, [r3, #2]
     4aa:	2300      	movs	r3, #0
     4ac:	2a03      	cmp	r2, #3
     4ae:	d001      	beq.n	4b4 <usb_d_cb_trans_more+0x1c>
     4b0:	0018      	movs	r0, r3
     4b2:	bd70      	pop	{r4, r5, r6, pc}
     4b4:	0140      	lsls	r0, r0, #5
     4b6:	4b05      	ldr	r3, [pc, #20]	; (4cc <usb_d_cb_trans_more+0x34>)
     4b8:	1818      	adds	r0, r3, r0
     4ba:	6983      	ldr	r3, [r0, #24]
     4bc:	0029      	movs	r1, r5
     4be:	0020      	movs	r0, r4
     4c0:	4798      	blx	r3
     4c2:	0003      	movs	r3, r0
     4c4:	e7f4      	b.n	4b0 <usb_d_cb_trans_more+0x18>
     4c6:	46c0      	nop			; (mov r8, r8)
     4c8:	00000451 	.word	0x00000451
     4cc:	20000268 	.word	0x20000268

000004d0 <_usb_d_cb_trans_done>:
     4d0:	b5f0      	push	{r4, r5, r6, r7, lr}
     4d2:	b085      	sub	sp, #20
     4d4:	0005      	movs	r5, r0
     4d6:	000f      	movs	r7, r1
     4d8:	0016      	movs	r6, r2
     4da:	4b51      	ldr	r3, [pc, #324]	; (620 <_usb_d_cb_trans_done+0x150>)
     4dc:	4798      	blx	r3
     4de:	0004      	movs	r4, r0
     4e0:	2f00      	cmp	r7, #0
     4e2:	d162      	bne.n	5aa <_usb_d_cb_trans_done+0xda>
     4e4:	4b4f      	ldr	r3, [pc, #316]	; (624 <_usb_d_cb_trans_done+0x154>)
     4e6:	0142      	lsls	r2, r0, #5
     4e8:	1899      	adds	r1, r3, r2
     4ea:	2000      	movs	r0, #0
     4ec:	70c8      	strb	r0, [r1, #3]
     4ee:	5cd3      	ldrb	r3, [r2, r3]
     4f0:	2b00      	cmp	r3, #0
     4f2:	d00e      	beq.n	512 <_usb_d_cb_trans_done+0x42>
     4f4:	0162      	lsls	r2, r4, #5
     4f6:	4b4b      	ldr	r3, [pc, #300]	; (624 <_usb_d_cb_trans_done+0x154>)
     4f8:	189b      	adds	r3, r3, r2
     4fa:	2201      	movs	r2, #1
     4fc:	709a      	strb	r2, [r3, #2]
     4fe:	0164      	lsls	r4, r4, #5
     500:	4b48      	ldr	r3, [pc, #288]	; (624 <_usb_d_cb_trans_done+0x154>)
     502:	191c      	adds	r4, r3, r4
     504:	78e1      	ldrb	r1, [r4, #3]
     506:	69e3      	ldr	r3, [r4, #28]
     508:	0032      	movs	r2, r6
     50a:	0028      	movs	r0, r5
     50c:	4798      	blx	r3
     50e:	b005      	add	sp, #20
     510:	bdf0      	pop	{r4, r5, r6, r7, pc}
     512:	788b      	ldrb	r3, [r1, #2]
     514:	2b03      	cmp	r3, #3
     516:	d00c      	beq.n	532 <_usb_d_cb_trans_done+0x62>
     518:	4b42      	ldr	r3, [pc, #264]	; (624 <_usb_d_cb_trans_done+0x154>)
     51a:	0162      	lsls	r2, r4, #5
     51c:	320c      	adds	r2, #12
     51e:	189a      	adds	r2, r3, r2
     520:	0164      	lsls	r4, r4, #5
     522:	191c      	adds	r4, r3, r4
     524:	7860      	ldrb	r0, [r4, #1]
     526:	2100      	movs	r1, #0
     528:	69e3      	ldr	r3, [r4, #28]
     52a:	4798      	blx	r3
     52c:	2302      	movs	r3, #2
     52e:	70a3      	strb	r3, [r4, #2]
     530:	e7ed      	b.n	50e <_usb_d_cb_trans_done+0x3e>
     532:	4a3c      	ldr	r2, [pc, #240]	; (624 <_usb_d_cb_trans_done+0x154>)
     534:	000b      	movs	r3, r1
     536:	250c      	movs	r5, #12
     538:	574d      	ldrsb	r5, [r1, r5]
     53a:	0161      	lsls	r1, r4, #5
     53c:	310c      	adds	r1, #12
     53e:	1852      	adds	r2, r2, r1
     540:	7858      	ldrb	r0, [r3, #1]
     542:	69db      	ldr	r3, [r3, #28]
     544:	2101      	movs	r1, #1
     546:	4798      	blx	r3
     548:	2800      	cmp	r0, #0
     54a:	d017      	beq.n	57c <_usb_d_cb_trans_done+0xac>
     54c:	0162      	lsls	r2, r4, #5
     54e:	4b35      	ldr	r3, [pc, #212]	; (624 <_usb_d_cb_trans_done+0x154>)
     550:	189b      	adds	r3, r3, r2
     552:	2205      	movs	r2, #5
     554:	709a      	strb	r2, [r3, #2]
     556:	3a03      	subs	r2, #3
     558:	70da      	strb	r2, [r3, #3]
     55a:	2d00      	cmp	r5, #0
     55c:	db09      	blt.n	572 <_usb_d_cb_trans_done+0xa2>
     55e:	0164      	lsls	r4, r4, #5
     560:	4b30      	ldr	r3, [pc, #192]	; (624 <_usb_d_cb_trans_done+0x154>)
     562:	191c      	adds	r4, r3, r4
     564:	7860      	ldrb	r0, [r4, #1]
     566:	2380      	movs	r3, #128	; 0x80
     568:	4318      	orrs	r0, r3
     56a:	2101      	movs	r1, #1
     56c:	4b2e      	ldr	r3, [pc, #184]	; (628 <_usb_d_cb_trans_done+0x158>)
     56e:	4798      	blx	r3
     570:	e7cd      	b.n	50e <_usb_d_cb_trans_done+0x3e>
     572:	0164      	lsls	r4, r4, #5
     574:	4b2b      	ldr	r3, [pc, #172]	; (624 <_usb_d_cb_trans_done+0x154>)
     576:	191c      	adds	r4, r3, r4
     578:	7860      	ldrb	r0, [r4, #1]
     57a:	e7f6      	b.n	56a <_usb_d_cb_trans_done+0x9a>
     57c:	0164      	lsls	r4, r4, #5
     57e:	4b29      	ldr	r3, [pc, #164]	; (624 <_usb_d_cb_trans_done+0x154>)
     580:	191c      	adds	r4, r3, r4
     582:	2304      	movs	r3, #4
     584:	70a3      	strb	r3, [r4, #2]
     586:	7863      	ldrb	r3, [r4, #1]
     588:	2200      	movs	r2, #0
     58a:	9201      	str	r2, [sp, #4]
     58c:	9202      	str	r2, [sp, #8]
     58e:	2d00      	cmp	r5, #0
     590:	db08      	blt.n	5a4 <_usb_d_cb_trans_done+0xd4>
     592:	3280      	adds	r2, #128	; 0x80
     594:	4313      	orrs	r3, r2
     596:	a801      	add	r0, sp, #4
     598:	7203      	strb	r3, [r0, #8]
     59a:	2301      	movs	r3, #1
     59c:	7243      	strb	r3, [r0, #9]
     59e:	4b23      	ldr	r3, [pc, #140]	; (62c <_usb_d_cb_trans_done+0x15c>)
     5a0:	4798      	blx	r3
     5a2:	e7b4      	b.n	50e <_usb_d_cb_trans_done+0x3e>
     5a4:	220f      	movs	r2, #15
     5a6:	4013      	ands	r3, r2
     5a8:	e7f5      	b.n	596 <_usb_d_cb_trans_done+0xc6>
     5aa:	2f01      	cmp	r7, #1
     5ac:	d00a      	beq.n	5c4 <_usb_d_cb_trans_done+0xf4>
     5ae:	2f02      	cmp	r7, #2
     5b0:	d01d      	beq.n	5ee <_usb_d_cb_trans_done+0x11e>
     5b2:	2f03      	cmp	r7, #3
     5b4:	d02c      	beq.n	610 <_usb_d_cb_trans_done+0x140>
     5b6:	0142      	lsls	r2, r0, #5
     5b8:	4b1a      	ldr	r3, [pc, #104]	; (624 <_usb_d_cb_trans_done+0x154>)
     5ba:	189b      	adds	r3, r3, r2
     5bc:	2206      	movs	r2, #6
     5be:	709a      	strb	r2, [r3, #2]
     5c0:	70da      	strb	r2, [r3, #3]
     5c2:	e79c      	b.n	4fe <_usb_d_cb_trans_done+0x2e>
     5c4:	4b17      	ldr	r3, [pc, #92]	; (624 <_usb_d_cb_trans_done+0x154>)
     5c6:	0142      	lsls	r2, r0, #5
     5c8:	1899      	adds	r1, r3, r2
     5ca:	2002      	movs	r0, #2
     5cc:	70c8      	strb	r0, [r1, #3]
     5ce:	5cd3      	ldrb	r3, [r2, r3]
     5d0:	2b00      	cmp	r3, #0
     5d2:	d005      	beq.n	5e0 <_usb_d_cb_trans_done+0x110>
     5d4:	0162      	lsls	r2, r4, #5
     5d6:	4b13      	ldr	r3, [pc, #76]	; (624 <_usb_d_cb_trans_done+0x154>)
     5d8:	189b      	adds	r3, r3, r2
     5da:	2205      	movs	r2, #5
     5dc:	709a      	strb	r2, [r3, #2]
     5de:	e78e      	b.n	4fe <_usb_d_cb_trans_done+0x2e>
     5e0:	2202      	movs	r2, #2
     5e2:	708a      	strb	r2, [r1, #2]
     5e4:	2100      	movs	r1, #0
     5e6:	0028      	movs	r0, r5
     5e8:	4b0f      	ldr	r3, [pc, #60]	; (628 <_usb_d_cb_trans_done+0x158>)
     5ea:	4798      	blx	r3
     5ec:	e787      	b.n	4fe <_usb_d_cb_trans_done+0x2e>
     5ee:	4b0d      	ldr	r3, [pc, #52]	; (624 <_usb_d_cb_trans_done+0x154>)
     5f0:	0142      	lsls	r2, r0, #5
     5f2:	1899      	adds	r1, r3, r2
     5f4:	2004      	movs	r0, #4
     5f6:	70c8      	strb	r0, [r1, #3]
     5f8:	5cd3      	ldrb	r3, [r2, r3]
     5fa:	2b00      	cmp	r3, #0
     5fc:	d005      	beq.n	60a <_usb_d_cb_trans_done+0x13a>
     5fe:	0162      	lsls	r2, r4, #5
     600:	4b08      	ldr	r3, [pc, #32]	; (624 <_usb_d_cb_trans_done+0x154>)
     602:	189b      	adds	r3, r3, r2
     604:	2201      	movs	r2, #1
     606:	709a      	strb	r2, [r3, #2]
     608:	e779      	b.n	4fe <_usb_d_cb_trans_done+0x2e>
     60a:	2302      	movs	r3, #2
     60c:	708b      	strb	r3, [r1, #2]
     60e:	e77e      	b.n	50e <_usb_d_cb_trans_done+0x3e>
     610:	0142      	lsls	r2, r0, #5
     612:	4b04      	ldr	r3, [pc, #16]	; (624 <_usb_d_cb_trans_done+0x154>)
     614:	189b      	adds	r3, r3, r2
     616:	2200      	movs	r2, #0
     618:	709a      	strb	r2, [r3, #2]
     61a:	3205      	adds	r2, #5
     61c:	70da      	strb	r2, [r3, #3]
     61e:	e76e      	b.n	4fe <_usb_d_cb_trans_done+0x2e>
     620:	00000451 	.word	0x00000451
     624:	20000268 	.word	0x20000268
     628:	00001899 	.word	0x00001899
     62c:	00001a6d 	.word	0x00001a6d

00000630 <usb_d_cb_trans_setup>:
     630:	b5f0      	push	{r4, r5, r6, r7, lr}
     632:	46c6      	mov	lr, r8
     634:	b500      	push	{lr}
     636:	0004      	movs	r4, r0
     638:	4b1d      	ldr	r3, [pc, #116]	; (6b0 <usb_d_cb_trans_setup+0x80>)
     63a:	4798      	blx	r3
     63c:	0006      	movs	r6, r0
     63e:	0145      	lsls	r5, r0, #5
     640:	350c      	adds	r5, #12
     642:	4b1c      	ldr	r3, [pc, #112]	; (6b4 <usb_d_cb_trans_setup+0x84>)
     644:	195d      	adds	r5, r3, r5
     646:	0029      	movs	r1, r5
     648:	0020      	movs	r0, r4
     64a:	4b1b      	ldr	r3, [pc, #108]	; (6b8 <usb_d_cb_trans_setup+0x88>)
     64c:	4798      	blx	r3
     64e:	b2c0      	uxtb	r0, r0
     650:	2808      	cmp	r0, #8
     652:	d00a      	beq.n	66a <usb_d_cb_trans_setup+0x3a>
     654:	2101      	movs	r1, #1
     656:	0020      	movs	r0, r4
     658:	4d18      	ldr	r5, [pc, #96]	; (6bc <usb_d_cb_trans_setup+0x8c>)
     65a:	47a8      	blx	r5
     65c:	2080      	movs	r0, #128	; 0x80
     65e:	4320      	orrs	r0, r4
     660:	2101      	movs	r1, #1
     662:	47a8      	blx	r5
     664:	bc04      	pop	{r2}
     666:	4690      	mov	r8, r2
     668:	bdf0      	pop	{r4, r5, r6, r7, pc}
     66a:	2100      	movs	r1, #0
     66c:	0020      	movs	r0, r4
     66e:	4b13      	ldr	r3, [pc, #76]	; (6bc <usb_d_cb_trans_setup+0x8c>)
     670:	4698      	mov	r8, r3
     672:	4798      	blx	r3
     674:	2780      	movs	r7, #128	; 0x80
     676:	4327      	orrs	r7, r4
     678:	2100      	movs	r1, #0
     67a:	0038      	movs	r0, r7
     67c:	47c0      	blx	r8
     67e:	0172      	lsls	r2, r6, #5
     680:	4b0c      	ldr	r3, [pc, #48]	; (6b4 <usb_d_cb_trans_setup+0x84>)
     682:	189b      	adds	r3, r3, r2
     684:	2201      	movs	r2, #1
     686:	709a      	strb	r2, [r3, #2]
     688:	695b      	ldr	r3, [r3, #20]
     68a:	0029      	movs	r1, r5
     68c:	0020      	movs	r0, r4
     68e:	4798      	blx	r3
     690:	2800      	cmp	r0, #0
     692:	d1e7      	bne.n	664 <usb_d_cb_trans_setup+0x34>
     694:	0176      	lsls	r6, r6, #5
     696:	4b07      	ldr	r3, [pc, #28]	; (6b4 <usb_d_cb_trans_setup+0x84>)
     698:	199e      	adds	r6, r3, r6
     69a:	2305      	movs	r3, #5
     69c:	70b3      	strb	r3, [r6, #2]
     69e:	2101      	movs	r1, #1
     6a0:	0020      	movs	r0, r4
     6a2:	4c06      	ldr	r4, [pc, #24]	; (6bc <usb_d_cb_trans_setup+0x8c>)
     6a4:	47a0      	blx	r4
     6a6:	2101      	movs	r1, #1
     6a8:	0038      	movs	r0, r7
     6aa:	47a0      	blx	r4
     6ac:	e7da      	b.n	664 <usb_d_cb_trans_setup+0x34>
     6ae:	46c0      	nop			; (mov r8, r8)
     6b0:	00000451 	.word	0x00000451
     6b4:	20000268 	.word	0x20000268
     6b8:	000019fd 	.word	0x000019fd
     6bc:	00001899 	.word	0x00001899

000006c0 <usb_d_init>:
     6c0:	b510      	push	{r4, lr}
     6c2:	4b10      	ldr	r3, [pc, #64]	; (704 <usb_d_init+0x44>)
     6c4:	4798      	blx	r3
     6c6:	2800      	cmp	r0, #0
     6c8:	db1b      	blt.n	702 <usb_d_init+0x42>
     6ca:	4c0f      	ldr	r4, [pc, #60]	; (708 <usb_d_init+0x48>)
     6cc:	2280      	movs	r2, #128	; 0x80
     6ce:	2100      	movs	r1, #0
     6d0:	0020      	movs	r0, r4
     6d2:	4b0e      	ldr	r3, [pc, #56]	; (70c <usb_d_init+0x4c>)
     6d4:	4798      	blx	r3
     6d6:	0023      	movs	r3, r4
     6d8:	3480      	adds	r4, #128	; 0x80
     6da:	21ff      	movs	r1, #255	; 0xff
     6dc:	4a0c      	ldr	r2, [pc, #48]	; (710 <usb_d_init+0x50>)
     6de:	7059      	strb	r1, [r3, #1]
     6e0:	615a      	str	r2, [r3, #20]
     6e2:	619a      	str	r2, [r3, #24]
     6e4:	61da      	str	r2, [r3, #28]
     6e6:	3320      	adds	r3, #32
     6e8:	42a3      	cmp	r3, r4
     6ea:	d1f8      	bne.n	6de <usb_d_init+0x1e>
     6ec:	4909      	ldr	r1, [pc, #36]	; (714 <usb_d_init+0x54>)
     6ee:	2000      	movs	r0, #0
     6f0:	4c09      	ldr	r4, [pc, #36]	; (718 <usb_d_init+0x58>)
     6f2:	47a0      	blx	r4
     6f4:	4909      	ldr	r1, [pc, #36]	; (71c <usb_d_init+0x5c>)
     6f6:	2001      	movs	r0, #1
     6f8:	47a0      	blx	r4
     6fa:	4909      	ldr	r1, [pc, #36]	; (720 <usb_d_init+0x60>)
     6fc:	2002      	movs	r0, #2
     6fe:	47a0      	blx	r4
     700:	2000      	movs	r0, #0
     702:	bd10      	pop	{r4, pc}
     704:	00001279 	.word	0x00001279
     708:	20000268 	.word	0x20000268
     70c:	000034d3 	.word	0x000034d3
     710:	00000495 	.word	0x00000495
     714:	00000631 	.word	0x00000631
     718:	00001ca5 	.word	0x00001ca5
     71c:	00000499 	.word	0x00000499
     720:	000004d1 	.word	0x000004d1

00000724 <usb_d_register_callback>:
     724:	b510      	push	{r4, lr}
     726:	4b01      	ldr	r3, [pc, #4]	; (72c <usb_d_register_callback+0x8>)
     728:	4798      	blx	r3
     72a:	bd10      	pop	{r4, pc}
     72c:	00001c81 	.word	0x00001c81

00000730 <usb_d_enable>:
     730:	b510      	push	{r4, lr}
     732:	4b01      	ldr	r3, [pc, #4]	; (738 <usb_d_enable+0x8>)
     734:	4798      	blx	r3
     736:	bd10      	pop	{r4, pc}
     738:	00001355 	.word	0x00001355

0000073c <usb_d_attach>:
     73c:	b510      	push	{r4, lr}
     73e:	4b01      	ldr	r3, [pc, #4]	; (744 <usb_d_attach+0x8>)
     740:	4798      	blx	r3
     742:	bd10      	pop	{r4, pc}
     744:	000013a5 	.word	0x000013a5

00000748 <usb_d_set_address>:
     748:	b510      	push	{r4, lr}
     74a:	4b01      	ldr	r3, [pc, #4]	; (750 <usb_d_set_address+0x8>)
     74c:	4798      	blx	r3
     74e:	bd10      	pop	{r4, pc}
     750:	000013b5 	.word	0x000013b5

00000754 <usb_d_ep_init>:
     754:	b5f8      	push	{r3, r4, r5, r6, r7, lr}
     756:	0005      	movs	r5, r0
     758:	000e      	movs	r6, r1
     75a:	0017      	movs	r7, r2
     75c:	4b0f      	ldr	r3, [pc, #60]	; (79c <usb_d_ep_init+0x48>)
     75e:	4798      	blx	r3
     760:	2800      	cmp	r0, #0
     762:	da14      	bge.n	78e <usb_d_ep_init+0x3a>
     764:	20ff      	movs	r0, #255	; 0xff
     766:	4b0d      	ldr	r3, [pc, #52]	; (79c <usb_d_ep_init+0x48>)
     768:	4798      	blx	r3
     76a:	1e04      	subs	r4, r0, #0
     76c:	db12      	blt.n	794 <usb_d_ep_init+0x40>
     76e:	003a      	movs	r2, r7
     770:	0031      	movs	r1, r6
     772:	0028      	movs	r0, r5
     774:	4b0a      	ldr	r3, [pc, #40]	; (7a0 <usb_d_ep_init+0x4c>)
     776:	4798      	blx	r3
     778:	2800      	cmp	r0, #0
     77a:	db07      	blt.n	78c <usb_d_ep_init+0x38>
     77c:	4a09      	ldr	r2, [pc, #36]	; (7a4 <usb_d_ep_init+0x50>)
     77e:	0164      	lsls	r4, r4, #5
     780:	1913      	adds	r3, r2, r4
     782:	705d      	strb	r5, [r3, #1]
     784:	2303      	movs	r3, #3
     786:	401e      	ands	r6, r3
     788:	54a6      	strb	r6, [r4, r2]
     78a:	2000      	movs	r0, #0
     78c:	bdf8      	pop	{r3, r4, r5, r6, r7, pc}
     78e:	2014      	movs	r0, #20
     790:	4240      	negs	r0, r0
     792:	e7fb      	b.n	78c <usb_d_ep_init+0x38>
     794:	2015      	movs	r0, #21
     796:	4240      	negs	r0, r0
     798:	e7f8      	b.n	78c <usb_d_ep_init+0x38>
     79a:	46c0      	nop			; (mov r8, r8)
     79c:	00000451 	.word	0x00000451
     7a0:	000013c5 	.word	0x000013c5
     7a4:	20000268 	.word	0x20000268

000007a8 <usb_d_ep0_init>:
     7a8:	b510      	push	{r4, lr}
     7aa:	b282      	uxth	r2, r0
     7ac:	2100      	movs	r1, #0
     7ae:	2000      	movs	r0, #0
     7b0:	4b01      	ldr	r3, [pc, #4]	; (7b8 <usb_d_ep0_init+0x10>)
     7b2:	4798      	blx	r3
     7b4:	bd10      	pop	{r4, pc}
     7b6:	46c0      	nop			; (mov r8, r8)
     7b8:	00000755 	.word	0x00000755

000007bc <usb_d_ep_deinit>:
     7bc:	b570      	push	{r4, r5, r6, lr}
     7be:	0005      	movs	r5, r0
     7c0:	4b06      	ldr	r3, [pc, #24]	; (7dc <usb_d_ep_deinit+0x20>)
     7c2:	4798      	blx	r3
     7c4:	1e04      	subs	r4, r0, #0
     7c6:	db07      	blt.n	7d8 <usb_d_ep_deinit+0x1c>
     7c8:	0028      	movs	r0, r5
     7ca:	4b05      	ldr	r3, [pc, #20]	; (7e0 <usb_d_ep_deinit+0x24>)
     7cc:	4798      	blx	r3
     7ce:	0164      	lsls	r4, r4, #5
     7d0:	4b04      	ldr	r3, [pc, #16]	; (7e4 <usb_d_ep_deinit+0x28>)
     7d2:	191c      	adds	r4, r3, r4
     7d4:	23ff      	movs	r3, #255	; 0xff
     7d6:	7063      	strb	r3, [r4, #1]
     7d8:	bd70      	pop	{r4, r5, r6, pc}
     7da:	46c0      	nop			; (mov r8, r8)
     7dc:	00000451 	.word	0x00000451
     7e0:	000014f1 	.word	0x000014f1
     7e4:	20000268 	.word	0x20000268

000007e8 <usb_d_ep_enable>:
     7e8:	b570      	push	{r4, r5, r6, lr}
     7ea:	0004      	movs	r4, r0
     7ec:	4b0e      	ldr	r3, [pc, #56]	; (828 <usb_d_ep_enable+0x40>)
     7ee:	4798      	blx	r3
     7f0:	1e05      	subs	r5, r0, #0
     7f2:	db15      	blt.n	820 <usb_d_ep_enable+0x38>
     7f4:	0143      	lsls	r3, r0, #5
     7f6:	4a0d      	ldr	r2, [pc, #52]	; (82c <usb_d_ep_enable+0x44>)
     7f8:	5c9b      	ldrb	r3, [r3, r2]
     7fa:	425a      	negs	r2, r3
     7fc:	4153      	adcs	r3, r2
     7fe:	3301      	adds	r3, #1
     800:	0141      	lsls	r1, r0, #5
     802:	4a0a      	ldr	r2, [pc, #40]	; (82c <usb_d_ep_enable+0x44>)
     804:	1852      	adds	r2, r2, r1
     806:	7093      	strb	r3, [r2, #2]
     808:	0020      	movs	r0, r4
     80a:	4b09      	ldr	r3, [pc, #36]	; (830 <usb_d_ep_enable+0x48>)
     80c:	4798      	blx	r3
     80e:	2800      	cmp	r0, #0
     810:	db00      	blt.n	814 <usb_d_ep_enable+0x2c>
     812:	bd70      	pop	{r4, r5, r6, pc}
     814:	016d      	lsls	r5, r5, #5
     816:	4b05      	ldr	r3, [pc, #20]	; (82c <usb_d_ep_enable+0x44>)
     818:	195d      	adds	r5, r3, r5
     81a:	2300      	movs	r3, #0
     81c:	70ab      	strb	r3, [r5, #2]
     81e:	e7f8      	b.n	812 <usb_d_ep_enable+0x2a>
     820:	2012      	movs	r0, #18
     822:	4240      	negs	r0, r0
     824:	e7f5      	b.n	812 <usb_d_ep_enable+0x2a>
     826:	46c0      	nop			; (mov r8, r8)
     828:	00000451 	.word	0x00000451
     82c:	20000268 	.word	0x20000268
     830:	000015bd 	.word	0x000015bd

00000834 <usb_d_ep_transfer>:
     834:	b5f0      	push	{r4, r5, r6, r7, lr}
     836:	46d6      	mov	lr, sl
     838:	464f      	mov	r7, r9
     83a:	4646      	mov	r6, r8
     83c:	b5c0      	push	{r6, r7, lr}
     83e:	b086      	sub	sp, #24
     840:	0004      	movs	r4, r0
     842:	7a07      	ldrb	r7, [r0, #8]
     844:	0038      	movs	r0, r7
     846:	4b40      	ldr	r3, [pc, #256]	; (948 <usb_d_ep_transfer+0x114>)
     848:	4798      	blx	r3
     84a:	0005      	movs	r5, r0
     84c:	7a66      	ldrb	r6, [r4, #9]
     84e:	6863      	ldr	r3, [r4, #4]
     850:	4698      	mov	r8, r3
     852:	2800      	cmp	r0, #0
     854:	da00      	bge.n	858 <usb_d_ep_transfer+0x24>
     856:	e071      	b.n	93c <usb_d_ep_transfer+0x108>
     858:	a804      	add	r0, sp, #16
     85a:	4b3c      	ldr	r3, [pc, #240]	; (94c <usb_d_ep_transfer+0x118>)
     85c:	4798      	blx	r3
     85e:	016a      	lsls	r2, r5, #5
     860:	4b3b      	ldr	r3, [pc, #236]	; (950 <usb_d_ep_transfer+0x11c>)
     862:	189b      	adds	r3, r3, r2
     864:	789a      	ldrb	r2, [r3, #2]
     866:	2317      	movs	r3, #23
     868:	446b      	add	r3, sp
     86a:	701a      	strb	r2, [r3, #0]
     86c:	781b      	ldrb	r3, [r3, #0]
     86e:	2b01      	cmp	r3, #1
     870:	d010      	beq.n	894 <usb_d_ep_transfer+0x60>
     872:	a804      	add	r0, sp, #16
     874:	4b37      	ldr	r3, [pc, #220]	; (954 <usb_d_ep_transfer+0x120>)
     876:	4798      	blx	r3
     878:	2317      	movs	r3, #23
     87a:	446b      	add	r3, sp
     87c:	781b      	ldrb	r3, [r3, #0]
     87e:	b2db      	uxtb	r3, r3
     880:	2b05      	cmp	r3, #5
     882:	d05e      	beq.n	942 <usb_d_ep_transfer+0x10e>
     884:	2b06      	cmp	r3, #6
     886:	d023      	beq.n	8d0 <usb_d_ep_transfer+0x9c>
     888:	2001      	movs	r0, #1
     88a:	2b00      	cmp	r3, #0
     88c:	d13c      	bne.n	908 <usb_d_ep_transfer+0xd4>
     88e:	2013      	movs	r0, #19
     890:	4240      	negs	r0, r0
     892:	e039      	b.n	908 <usb_d_ep_transfer+0xd4>
     894:	4b2e      	ldr	r3, [pc, #184]	; (950 <usb_d_ep_transfer+0x11c>)
     896:	4699      	mov	r9, r3
     898:	016b      	lsls	r3, r5, #5
     89a:	469a      	mov	sl, r3
     89c:	464b      	mov	r3, r9
     89e:	4453      	add	r3, sl
     8a0:	2203      	movs	r2, #3
     8a2:	709a      	strb	r2, [r3, #2]
     8a4:	a804      	add	r0, sp, #16
     8a6:	4b2b      	ldr	r3, [pc, #172]	; (954 <usb_d_ep_transfer+0x120>)
     8a8:	4798      	blx	r3
     8aa:	464b      	mov	r3, r9
     8ac:	4652      	mov	r2, sl
     8ae:	5cd3      	ldrb	r3, [r2, r3]
     8b0:	2b00      	cmp	r3, #0
     8b2:	d010      	beq.n	8d6 <usb_d_ep_transfer+0xa2>
     8b4:	7a23      	ldrb	r3, [r4, #8]
     8b6:	1e72      	subs	r2, r6, #1
     8b8:	4196      	sbcs	r6, r2
     8ba:	b2f6      	uxtb	r6, r6
     8bc:	6822      	ldr	r2, [r4, #0]
     8be:	9201      	str	r2, [sp, #4]
     8c0:	4642      	mov	r2, r8
     8c2:	9202      	str	r2, [sp, #8]
     8c4:	b27f      	sxtb	r7, r7
     8c6:	2f00      	cmp	r7, #0
     8c8:	db17      	blt.n	8fa <usb_d_ep_transfer+0xc6>
     8ca:	220f      	movs	r2, #15
     8cc:	4013      	ands	r3, r2
     8ce:	e016      	b.n	8fe <usb_d_ep_transfer+0xca>
     8d0:	2010      	movs	r0, #16
     8d2:	4240      	negs	r0, r0
     8d4:	e018      	b.n	908 <usb_d_ep_transfer+0xd4>
     8d6:	016b      	lsls	r3, r5, #5
     8d8:	4a1d      	ldr	r2, [pc, #116]	; (950 <usb_d_ep_transfer+0x11c>)
     8da:	18d2      	adds	r2, r2, r3
     8dc:	7cd1      	ldrb	r1, [r2, #19]
     8de:	0209      	lsls	r1, r1, #8
     8e0:	7c93      	ldrb	r3, [r2, #18]
     8e2:	185b      	adds	r3, r3, r1
     8e4:	b29b      	uxth	r3, r3
     8e6:	2b00      	cmp	r3, #0
     8e8:	d114      	bne.n	914 <usb_d_ep_transfer+0xe0>
     8ea:	2304      	movs	r3, #4
     8ec:	7093      	strb	r3, [r2, #2]
     8ee:	2200      	movs	r2, #0
     8f0:	2601      	movs	r6, #1
     8f2:	7a23      	ldrb	r3, [r4, #8]
     8f4:	6821      	ldr	r1, [r4, #0]
     8f6:	9101      	str	r1, [sp, #4]
     8f8:	9202      	str	r2, [sp, #8]
     8fa:	2280      	movs	r2, #128	; 0x80
     8fc:	4313      	orrs	r3, r2
     8fe:	a801      	add	r0, sp, #4
     900:	7203      	strb	r3, [r0, #8]
     902:	7246      	strb	r6, [r0, #9]
     904:	4b14      	ldr	r3, [pc, #80]	; (958 <usb_d_ep_transfer+0x124>)
     906:	4798      	blx	r3
     908:	b006      	add	sp, #24
     90a:	bc1c      	pop	{r2, r3, r4}
     90c:	4690      	mov	r8, r2
     90e:	4699      	mov	r9, r3
     910:	46a2      	mov	sl, r4
     912:	bdf0      	pop	{r4, r5, r6, r7, pc}
     914:	4642      	mov	r2, r8
     916:	429a      	cmp	r2, r3
     918:	d900      	bls.n	91c <usb_d_ep_transfer+0xe8>
     91a:	001a      	movs	r2, r3
     91c:	016d      	lsls	r5, r5, #5
     91e:	490c      	ldr	r1, [pc, #48]	; (950 <usb_d_ep_transfer+0x11c>)
     920:	194d      	adds	r5, r1, r5
     922:	7b29      	ldrb	r1, [r5, #12]
     924:	297f      	cmp	r1, #127	; 0x7f
     926:	d805      	bhi.n	934 <usb_d_ep_transfer+0x100>
     928:	7a23      	ldrb	r3, [r4, #8]
     92a:	6821      	ldr	r1, [r4, #0]
     92c:	9101      	str	r1, [sp, #4]
     92e:	9202      	str	r2, [sp, #8]
     930:	2600      	movs	r6, #0
     932:	e7ca      	b.n	8ca <usb_d_ep_transfer+0x96>
     934:	429a      	cmp	r2, r3
     936:	41b6      	sbcs	r6, r6
     938:	4276      	negs	r6, r6
     93a:	e7da      	b.n	8f2 <usb_d_ep_transfer+0xbe>
     93c:	2012      	movs	r0, #18
     93e:	4240      	negs	r0, r0
     940:	e7e2      	b.n	908 <usb_d_ep_transfer+0xd4>
     942:	2002      	movs	r0, #2
     944:	e7e0      	b.n	908 <usb_d_ep_transfer+0xd4>
     946:	46c0      	nop			; (mov r8, r8)
     948:	00000451 	.word	0x00000451
     94c:	00000415 	.word	0x00000415
     950:	20000268 	.word	0x20000268
     954:	00000423 	.word	0x00000423
     958:	00001a6d 	.word	0x00001a6d

0000095c <usb_d_ep_halt>:
     95c:	b570      	push	{r4, r5, r6, lr}
     95e:	0004      	movs	r4, r0
     960:	2900      	cmp	r1, #0
     962:	d005      	beq.n	970 <usb_d_ep_halt+0x14>
     964:	2901      	cmp	r1, #1
     966:	d021      	beq.n	9ac <usb_d_ep_halt+0x50>
     968:	2102      	movs	r1, #2
     96a:	4b13      	ldr	r3, [pc, #76]	; (9b8 <usb_d_ep_halt+0x5c>)
     96c:	4798      	blx	r3
     96e:	bd70      	pop	{r4, r5, r6, pc}
     970:	4b12      	ldr	r3, [pc, #72]	; (9bc <usb_d_ep_halt+0x60>)
     972:	4798      	blx	r3
     974:	1e05      	subs	r5, r0, #0
     976:	db1c      	blt.n	9b2 <usb_d_ep_halt+0x56>
     978:	2102      	movs	r1, #2
     97a:	0020      	movs	r0, r4
     97c:	4b0e      	ldr	r3, [pc, #56]	; (9b8 <usb_d_ep_halt+0x5c>)
     97e:	4798      	blx	r3
     980:	2800      	cmp	r0, #0
     982:	d0f4      	beq.n	96e <usb_d_ep_halt+0x12>
     984:	2100      	movs	r1, #0
     986:	0020      	movs	r0, r4
     988:	4b0b      	ldr	r3, [pc, #44]	; (9b8 <usb_d_ep_halt+0x5c>)
     98a:	4798      	blx	r3
     98c:	2800      	cmp	r0, #0
     98e:	dbee      	blt.n	96e <usb_d_ep_halt+0x12>
     990:	016d      	lsls	r5, r5, #5
     992:	4b0b      	ldr	r3, [pc, #44]	; (9c0 <usb_d_ep_halt+0x64>)
     994:	195d      	adds	r5, r3, r5
     996:	2301      	movs	r3, #1
     998:	70ab      	strb	r3, [r5, #2]
     99a:	3302      	adds	r3, #2
     99c:	70eb      	strb	r3, [r5, #3]
     99e:	69eb      	ldr	r3, [r5, #28]
     9a0:	2200      	movs	r2, #0
     9a2:	2103      	movs	r1, #3
     9a4:	0020      	movs	r0, r4
     9a6:	4798      	blx	r3
     9a8:	2000      	movs	r0, #0
     9aa:	e7e0      	b.n	96e <usb_d_ep_halt+0x12>
     9ac:	4b02      	ldr	r3, [pc, #8]	; (9b8 <usb_d_ep_halt+0x5c>)
     9ae:	4798      	blx	r3
     9b0:	e7dd      	b.n	96e <usb_d_ep_halt+0x12>
     9b2:	2012      	movs	r0, #18
     9b4:	4240      	negs	r0, r0
     9b6:	e7da      	b.n	96e <usb_d_ep_halt+0x12>
     9b8:	00001899 	.word	0x00001899
     9bc:	00000451 	.word	0x00000451
     9c0:	20000268 	.word	0x20000268

000009c4 <usb_d_ep_register_callback>:
     9c4:	b570      	push	{r4, r5, r6, lr}
     9c6:	000d      	movs	r5, r1
     9c8:	0014      	movs	r4, r2
     9ca:	4b0f      	ldr	r3, [pc, #60]	; (a08 <usb_d_ep_register_callback+0x44>)
     9cc:	4798      	blx	r3
     9ce:	0003      	movs	r3, r0
     9d0:	1e22      	subs	r2, r4, #0
     9d2:	d008      	beq.n	9e6 <usb_d_ep_register_callback+0x22>
     9d4:	2b00      	cmp	r3, #0
     9d6:	db05      	blt.n	9e4 <usb_d_ep_register_callback+0x20>
     9d8:	2d01      	cmp	r5, #1
     9da:	d00b      	beq.n	9f4 <usb_d_ep_register_callback+0x30>
     9dc:	2d00      	cmp	r5, #0
     9de:	d004      	beq.n	9ea <usb_d_ep_register_callback+0x26>
     9e0:	2d02      	cmp	r5, #2
     9e2:	d00c      	beq.n	9fe <usb_d_ep_register_callback+0x3a>
     9e4:	bd70      	pop	{r4, r5, r6, pc}
     9e6:	4a09      	ldr	r2, [pc, #36]	; (a0c <usb_d_ep_register_callback+0x48>)
     9e8:	e7f4      	b.n	9d4 <usb_d_ep_register_callback+0x10>
     9ea:	0140      	lsls	r0, r0, #5
     9ec:	4b08      	ldr	r3, [pc, #32]	; (a10 <usb_d_ep_register_callback+0x4c>)
     9ee:	1818      	adds	r0, r3, r0
     9f0:	6142      	str	r2, [r0, #20]
     9f2:	e7f7      	b.n	9e4 <usb_d_ep_register_callback+0x20>
     9f4:	0140      	lsls	r0, r0, #5
     9f6:	4b06      	ldr	r3, [pc, #24]	; (a10 <usb_d_ep_register_callback+0x4c>)
     9f8:	1818      	adds	r0, r3, r0
     9fa:	6182      	str	r2, [r0, #24]
     9fc:	e7f2      	b.n	9e4 <usb_d_ep_register_callback+0x20>
     9fe:	0140      	lsls	r0, r0, #5
     a00:	4b03      	ldr	r3, [pc, #12]	; (a10 <usb_d_ep_register_callback+0x4c>)
     a02:	1818      	adds	r0, r3, r0
     a04:	61c2      	str	r2, [r0, #28]
     a06:	e7ed      	b.n	9e4 <usb_d_ep_register_callback+0x20>
     a08:	00000451 	.word	0x00000451
     a0c:	00000495 	.word	0x00000495
     a10:	20000268 	.word	0x20000268

00000a14 <assert>:
     a14:	2800      	cmp	r0, #0
     a16:	d100      	bne.n	a1a <assert+0x6>
     a18:	be00      	bkpt	0x0000
     a1a:	4770      	bx	lr

00000a1c <is_list_element>:
     a1c:	6803      	ldr	r3, [r0, #0]
     a1e:	2b00      	cmp	r3, #0
     a20:	d00a      	beq.n	a38 <is_list_element+0x1c>
     a22:	428b      	cmp	r3, r1
     a24:	d00a      	beq.n	a3c <is_list_element+0x20>
     a26:	681b      	ldr	r3, [r3, #0]
     a28:	2b00      	cmp	r3, #0
     a2a:	d003      	beq.n	a34 <is_list_element+0x18>
     a2c:	4299      	cmp	r1, r3
     a2e:	d1fa      	bne.n	a26 <is_list_element+0xa>
     a30:	2001      	movs	r0, #1
     a32:	e000      	b.n	a36 <is_list_element+0x1a>
     a34:	2000      	movs	r0, #0
     a36:	4770      	bx	lr
     a38:	2000      	movs	r0, #0
     a3a:	e7fc      	b.n	a36 <is_list_element+0x1a>
     a3c:	2001      	movs	r0, #1
     a3e:	e7fa      	b.n	a36 <is_list_element+0x1a>

00000a40 <list_insert_at_end>:
     a40:	b570      	push	{r4, r5, r6, lr}
     a42:	0005      	movs	r5, r0
     a44:	000e      	movs	r6, r1
     a46:	6804      	ldr	r4, [r0, #0]
     a48:	4b0a      	ldr	r3, [pc, #40]	; (a74 <list_insert_at_end+0x34>)
     a4a:	4798      	blx	r3
     a4c:	2301      	movs	r3, #1
     a4e:	4058      	eors	r0, r3
     a50:	b2c0      	uxtb	r0, r0
     a52:	224f      	movs	r2, #79	; 0x4f
     a54:	4908      	ldr	r1, [pc, #32]	; (a78 <list_insert_at_end+0x38>)
     a56:	4b09      	ldr	r3, [pc, #36]	; (a7c <list_insert_at_end+0x3c>)
     a58:	4798      	blx	r3
     a5a:	682b      	ldr	r3, [r5, #0]
     a5c:	2b00      	cmp	r3, #0
     a5e:	d103      	bne.n	a68 <list_insert_at_end+0x28>
     a60:	602e      	str	r6, [r5, #0]
     a62:	6033      	str	r3, [r6, #0]
     a64:	e005      	b.n	a72 <list_insert_at_end+0x32>
     a66:	001c      	movs	r4, r3
     a68:	6823      	ldr	r3, [r4, #0]
     a6a:	2b00      	cmp	r3, #0
     a6c:	d1fb      	bne.n	a66 <list_insert_at_end+0x26>
     a6e:	6026      	str	r6, [r4, #0]
     a70:	6033      	str	r3, [r6, #0]
     a72:	bd70      	pop	{r4, r5, r6, pc}
     a74:	00000a1d 	.word	0x00000a1d
     a78:	00003f08 	.word	0x00003f08
     a7c:	00000a15 	.word	0x00000a15

00000a80 <_sbrk>:
     a80:	0003      	movs	r3, r0
     a82:	4a06      	ldr	r2, [pc, #24]	; (a9c <_sbrk+0x1c>)
     a84:	6812      	ldr	r2, [r2, #0]
     a86:	2a00      	cmp	r2, #0
     a88:	d004      	beq.n	a94 <_sbrk+0x14>
     a8a:	4a04      	ldr	r2, [pc, #16]	; (a9c <_sbrk+0x1c>)
     a8c:	6810      	ldr	r0, [r2, #0]
     a8e:	18c3      	adds	r3, r0, r3
     a90:	6013      	str	r3, [r2, #0]
     a92:	4770      	bx	lr
     a94:	4902      	ldr	r1, [pc, #8]	; (aa0 <_sbrk+0x20>)
     a96:	4a01      	ldr	r2, [pc, #4]	; (a9c <_sbrk+0x1c>)
     a98:	6011      	str	r1, [r2, #0]
     a9a:	e7f6      	b.n	a8a <_sbrk+0xa>
     a9c:	200002e8 	.word	0x200002e8
     aa0:	20000a80 	.word	0x20000a80

00000aa4 <_get_cycles_for_ms>:
     aa4:	b510      	push	{r4, lr}
     aa6:	0103      	lsls	r3, r0, #4
     aa8:	1a18      	subs	r0, r3, r0
     aaa:	0140      	lsls	r0, r0, #5
     aac:	3002      	adds	r0, #2
     aae:	2103      	movs	r1, #3
     ab0:	4b02      	ldr	r3, [pc, #8]	; (abc <_get_cycles_for_ms+0x18>)
     ab2:	4798      	blx	r3
     ab4:	2364      	movs	r3, #100	; 0x64
     ab6:	4358      	muls	r0, r3
     ab8:	bd10      	pop	{r4, pc}
     aba:	46c0      	nop			; (mov r8, r8)
     abc:	00003361 	.word	0x00003361

00000ac0 <_delay_cycles>:
     ac0:	3901      	subs	r1, #1
     ac2:	d8fd      	bhi.n	ac0 <_delay_cycles>
     ac4:	4770      	bx	lr
	...

00000ac8 <_init_chip>:
     ac8:	b510      	push	{r4, lr}
     aca:	4a08      	ldr	r2, [pc, #32]	; (aec <_init_chip+0x24>)
     acc:	6853      	ldr	r3, [r2, #4]
     ace:	2102      	movs	r1, #2
     ad0:	430b      	orrs	r3, r1
     ad2:	6053      	str	r3, [r2, #4]
     ad4:	4b06      	ldr	r3, [pc, #24]	; (af0 <_init_chip+0x28>)
     ad6:	4798      	blx	r3
     ad8:	4b06      	ldr	r3, [pc, #24]	; (af4 <_init_chip+0x2c>)
     ada:	4798      	blx	r3
     adc:	2002      	movs	r0, #2
     ade:	4c06      	ldr	r4, [pc, #24]	; (af8 <_init_chip+0x30>)
     ae0:	47a0      	blx	r4
     ae2:	4b06      	ldr	r3, [pc, #24]	; (afc <_init_chip+0x34>)
     ae4:	4798      	blx	r3
     ae6:	20fd      	movs	r0, #253	; 0xfd
     ae8:	47a0      	blx	r4
     aea:	bd10      	pop	{r4, pc}
     aec:	41004000 	.word	0x41004000
     af0:	00000b41 	.word	0x00000b41
     af4:	00000b61 	.word	0x00000b61
     af8:	00000b01 	.word	0x00000b01
     afc:	00000b79 	.word	0x00000b79

00000b00 <_gclk_init_generators_by_fref>:
     b00:	07c3      	lsls	r3, r0, #31
     b02:	d509      	bpl.n	b18 <_gclk_init_generators_by_fref+0x18>
     b04:	4b0b      	ldr	r3, [pc, #44]	; (b34 <_gclk_init_generators_by_fref+0x34>)
     b06:	2280      	movs	r2, #128	; 0x80
     b08:	0052      	lsls	r2, r2, #1
     b0a:	609a      	str	r2, [r3, #8]
     b0c:	4a0a      	ldr	r2, [pc, #40]	; (b38 <_gclk_init_generators_by_fref+0x38>)
     b0e:	605a      	str	r2, [r3, #4]
     b10:	001a      	movs	r2, r3
     b12:	7853      	ldrb	r3, [r2, #1]
     b14:	09db      	lsrs	r3, r3, #7
     b16:	d1fc      	bne.n	b12 <_gclk_init_generators_by_fref+0x12>
     b18:	0783      	lsls	r3, r0, #30
     b1a:	d509      	bpl.n	b30 <_gclk_init_generators_by_fref+0x30>
     b1c:	4b05      	ldr	r3, [pc, #20]	; (b34 <_gclk_init_generators_by_fref+0x34>)
     b1e:	2202      	movs	r2, #2
     b20:	32ff      	adds	r2, #255	; 0xff
     b22:	609a      	str	r2, [r3, #8]
     b24:	4a05      	ldr	r2, [pc, #20]	; (b3c <_gclk_init_generators_by_fref+0x3c>)
     b26:	605a      	str	r2, [r3, #4]
     b28:	001a      	movs	r2, r3
     b2a:	7853      	ldrb	r3, [r2, #1]
     b2c:	09db      	lsrs	r3, r3, #7
     b2e:	d1fc      	bne.n	b2a <_gclk_init_generators_by_fref+0x2a>
     b30:	4770      	bx	lr
     b32:	46c0      	nop			; (mov r8, r8)
     b34:	40000c00 	.word	0x40000c00
     b38:	00010700 	.word	0x00010700
     b3c:	00010301 	.word	0x00010301

00000b40 <_pm_init>:
     b40:	4b06      	ldr	r3, [pc, #24]	; (b5c <_pm_init+0x1c>)
     b42:	7a1a      	ldrb	r2, [r3, #8]
     b44:	b2d2      	uxtb	r2, r2
     b46:	721a      	strb	r2, [r3, #8]
     b48:	7a5a      	ldrb	r2, [r3, #9]
     b4a:	b2d2      	uxtb	r2, r2
     b4c:	725a      	strb	r2, [r3, #9]
     b4e:	7a9a      	ldrb	r2, [r3, #10]
     b50:	b2d2      	uxtb	r2, r2
     b52:	729a      	strb	r2, [r3, #10]
     b54:	7ada      	ldrb	r2, [r3, #11]
     b56:	b2d2      	uxtb	r2, r2
     b58:	72da      	strb	r2, [r3, #11]
     b5a:	4770      	bx	lr
     b5c:	40000400 	.word	0x40000400

00000b60 <_sysctrl_init_sources>:
     b60:	4b04      	ldr	r3, [pc, #16]	; (b74 <_sysctrl_init_sources+0x14>)
     b62:	699a      	ldr	r2, [r3, #24]
     b64:	2102      	movs	r1, #2
     b66:	430a      	orrs	r2, r1
     b68:	619a      	str	r2, [r3, #24]
     b6a:	7f1a      	ldrb	r2, [r3, #28]
     b6c:	311d      	adds	r1, #29
     b6e:	400a      	ands	r2, r1
     b70:	771a      	strb	r2, [r3, #28]
     b72:	4770      	bx	lr
     b74:	40000800 	.word	0x40000800

00000b78 <_sysctrl_init_referenced_generators>:
     b78:	2282      	movs	r2, #130	; 0x82
     b7a:	01d2      	lsls	r2, r2, #7
     b7c:	4b1d      	ldr	r3, [pc, #116]	; (bf4 <_sysctrl_init_referenced_generators+0x7c>)
     b7e:	805a      	strh	r2, [r3, #2]
     b80:	2202      	movs	r2, #2
     b82:	4b1d      	ldr	r3, [pc, #116]	; (bf8 <_sysctrl_init_referenced_generators+0x80>)
     b84:	849a      	strh	r2, [r3, #36]	; 0x24
     b86:	0019      	movs	r1, r3
     b88:	320e      	adds	r2, #14
     b8a:	68cb      	ldr	r3, [r1, #12]
     b8c:	421a      	tst	r2, r3
     b8e:	d0fc      	beq.n	b8a <_sysctrl_init_referenced_generators+0x12>
     b90:	4a1a      	ldr	r2, [pc, #104]	; (bfc <_sysctrl_init_referenced_generators+0x84>)
     b92:	4b19      	ldr	r3, [pc, #100]	; (bf8 <_sysctrl_init_referenced_generators+0x80>)
     b94:	62da      	str	r2, [r3, #44]	; 0x2c
     b96:	4b1a      	ldr	r3, [pc, #104]	; (c00 <_sysctrl_init_referenced_generators+0x88>)
     b98:	681b      	ldr	r3, [r3, #0]
     b9a:	0e9b      	lsrs	r3, r3, #26
     b9c:	2b3f      	cmp	r3, #63	; 0x3f
     b9e:	d01f      	beq.n	be0 <_sysctrl_init_referenced_generators+0x68>
     ba0:	029b      	lsls	r3, r3, #10
     ba2:	2280      	movs	r2, #128	; 0x80
     ba4:	0092      	lsls	r2, r2, #2
     ba6:	4313      	orrs	r3, r2
     ba8:	4a13      	ldr	r2, [pc, #76]	; (bf8 <_sysctrl_init_referenced_generators+0x80>)
     baa:	6293      	str	r3, [r2, #40]	; 0x28
     bac:	2306      	movs	r3, #6
     bae:	8493      	strh	r3, [r2, #36]	; 0x24
     bb0:	8c93      	ldrh	r3, [r2, #36]	; 0x24
     bb2:	075b      	lsls	r3, r3, #29
     bb4:	d517      	bpl.n	be6 <_sysctrl_init_referenced_generators+0x6e>
     bb6:	0011      	movs	r1, r2
     bb8:	22d0      	movs	r2, #208	; 0xd0
     bba:	68cb      	ldr	r3, [r1, #12]
     bbc:	4013      	ands	r3, r2
     bbe:	2bd0      	cmp	r3, #208	; 0xd0
     bc0:	d1fb      	bne.n	bba <_sysctrl_init_referenced_generators+0x42>
     bc2:	4a0d      	ldr	r2, [pc, #52]	; (bf8 <_sysctrl_init_referenced_generators+0x80>)
     bc4:	8c93      	ldrh	r3, [r2, #36]	; 0x24
     bc6:	2180      	movs	r1, #128	; 0x80
     bc8:	430b      	orrs	r3, r1
     bca:	8493      	strh	r3, [r2, #36]	; 0x24
     bcc:	4a09      	ldr	r2, [pc, #36]	; (bf4 <_sysctrl_init_referenced_generators+0x7c>)
     bce:	7853      	ldrb	r3, [r2, #1]
     bd0:	09db      	lsrs	r3, r3, #7
     bd2:	d1fc      	bne.n	bce <_sysctrl_init_referenced_generators+0x56>
     bd4:	4a08      	ldr	r2, [pc, #32]	; (bf8 <_sysctrl_init_referenced_generators+0x80>)
     bd6:	6993      	ldr	r3, [r2, #24]
     bd8:	2102      	movs	r1, #2
     bda:	438b      	bics	r3, r1
     bdc:	6193      	str	r3, [r2, #24]
     bde:	4770      	bx	lr
     be0:	23fc      	movs	r3, #252	; 0xfc
     be2:	01db      	lsls	r3, r3, #7
     be4:	e7e0      	b.n	ba8 <_sysctrl_init_referenced_generators+0x30>
     be6:	4904      	ldr	r1, [pc, #16]	; (bf8 <_sysctrl_init_referenced_generators+0x80>)
     be8:	2210      	movs	r2, #16
     bea:	68cb      	ldr	r3, [r1, #12]
     bec:	421a      	tst	r2, r3
     bee:	d0fc      	beq.n	bea <_sysctrl_init_referenced_generators+0x72>
     bf0:	e7e7      	b.n	bc2 <_sysctrl_init_referenced_generators+0x4a>
     bf2:	46c0      	nop			; (mov r8, r8)
     bf4:	40000c00 	.word	0x40000c00
     bf8:	40000800 	.word	0x40000800
     bfc:	040105b9 	.word	0x040105b9
     c00:	00806024 	.word	0x00806024

00000c04 <_dummy_func_no_return>:
     c04:	2000      	movs	r0, #0
     c06:	4770      	bx	lr

00000c08 <_usb_d_dev_handle_setup>:
     c08:	b570      	push	{r4, r5, r6, lr}
     c0a:	7c83      	ldrb	r3, [r0, #18]
     c0c:	220f      	movs	r2, #15
     c0e:	4013      	ands	r3, r2
     c10:	7cc1      	ldrb	r1, [r0, #19]
     c12:	3a08      	subs	r2, #8
     c14:	400a      	ands	r2, r1
     c16:	2a01      	cmp	r2, #1
     c18:	d00b      	beq.n	c32 <_usb_d_dev_handle_setup+0x2a>
     c1a:	015a      	lsls	r2, r3, #5
     c1c:	4919      	ldr	r1, [pc, #100]	; (c84 <_usb_d_dev_handle_setup+0x7c>)
     c1e:	468c      	mov	ip, r1
     c20:	4462      	add	r2, ip
     c22:	2110      	movs	r1, #16
     c24:	71d1      	strb	r1, [r2, #7]
     c26:	015b      	lsls	r3, r3, #5
     c28:	4a17      	ldr	r2, [pc, #92]	; (c88 <_usb_d_dev_handle_setup+0x80>)
     c2a:	4694      	mov	ip, r2
     c2c:	4463      	add	r3, ip
     c2e:	7019      	strb	r1, [r3, #0]
     c30:	bd70      	pop	{r4, r5, r6, pc}
     c32:	064a      	lsls	r2, r1, #25
     c34:	d50e      	bpl.n	c54 <_usb_d_dev_handle_setup+0x4c>
     c36:	7cc2      	ldrb	r2, [r0, #19]
     c38:	2140      	movs	r1, #64	; 0x40
     c3a:	438a      	bics	r2, r1
     c3c:	74c2      	strb	r2, [r0, #19]
     c3e:	015a      	lsls	r2, r3, #5
     c40:	4c12      	ldr	r4, [pc, #72]	; (c8c <_usb_d_dev_handle_setup+0x84>)
     c42:	46a4      	mov	ip, r4
     c44:	4462      	add	r2, ip
     c46:	2580      	movs	r5, #128	; 0x80
     c48:	2482      	movs	r4, #130	; 0x82
     c4a:	0064      	lsls	r4, r4, #1
     c4c:	5515      	strb	r5, [r2, r4]
     c4e:	2406      	movs	r4, #6
     c50:	34ff      	adds	r4, #255	; 0xff
     c52:	5511      	strb	r1, [r2, r4]
     c54:	7cc2      	ldrb	r2, [r0, #19]
     c56:	2108      	movs	r1, #8
     c58:	438a      	bics	r2, r1
     c5a:	74c2      	strb	r2, [r0, #19]
     c5c:	490c      	ldr	r1, [pc, #48]	; (c90 <_usb_d_dev_handle_setup+0x88>)
     c5e:	015a      	lsls	r2, r3, #5
     c60:	188c      	adds	r4, r1, r2
     c62:	2500      	movs	r5, #0
     c64:	72a5      	strb	r5, [r4, #10]
     c66:	76a5      	strb	r5, [r4, #26]
     c68:	0013      	movs	r3, r2
     c6a:	4c06      	ldr	r4, [pc, #24]	; (c84 <_usb_d_dev_handle_setup+0x7c>)
     c6c:	46a4      	mov	ip, r4
     c6e:	4463      	add	r3, ip
     c70:	246f      	movs	r4, #111	; 0x6f
     c72:	71dc      	strb	r4, [r3, #7]
     c74:	4b04      	ldr	r3, [pc, #16]	; (c88 <_usb_d_dev_handle_setup+0x80>)
     c76:	469c      	mov	ip, r3
     c78:	4462      	add	r2, ip
     c7a:	7014      	strb	r4, [r2, #0]
     c7c:	7c80      	ldrb	r0, [r0, #18]
     c7e:	6e8b      	ldr	r3, [r1, #104]	; 0x68
     c80:	4798      	blx	r3
     c82:	e7d5      	b.n	c30 <_usb_d_dev_handle_setup+0x28>
     c84:	41005100 	.word	0x41005100
     c88:	41005108 	.word	0x41005108
     c8c:	41005000 	.word	0x41005000
     c90:	200002ec 	.word	0x200002ec

00000c94 <_usb_d_dev_handle_stall>:
     c94:	b510      	push	{r4, lr}
     c96:	2220      	movs	r2, #32
     c98:	408a      	lsls	r2, r1
     c9a:	b2d2      	uxtb	r2, r2
     c9c:	7c81      	ldrb	r1, [r0, #18]
     c9e:	230f      	movs	r3, #15
     ca0:	400b      	ands	r3, r1
     ca2:	015b      	lsls	r3, r3, #5
     ca4:	4905      	ldr	r1, [pc, #20]	; (cbc <_usb_d_dev_handle_stall+0x28>)
     ca6:	468c      	mov	ip, r1
     ca8:	4463      	add	r3, ip
     caa:	701a      	strb	r2, [r3, #0]
     cac:	6882      	ldr	r2, [r0, #8]
     cae:	7c80      	ldrb	r0, [r0, #18]
     cb0:	4b03      	ldr	r3, [pc, #12]	; (cc0 <_usb_d_dev_handle_stall+0x2c>)
     cb2:	6f1b      	ldr	r3, [r3, #112]	; 0x70
     cb4:	2101      	movs	r1, #1
     cb6:	4798      	blx	r3
     cb8:	bd10      	pop	{r4, pc}
     cba:	46c0      	nop			; (mov r8, r8)
     cbc:	41005108 	.word	0x41005108
     cc0:	200002ec 	.word	0x200002ec

00000cc4 <_usb_d_dev_trans_done>:
     cc4:	b510      	push	{r4, lr}
     cc6:	7c83      	ldrb	r3, [r0, #18]
     cc8:	2bff      	cmp	r3, #255	; 0xff
     cca:	d002      	beq.n	cd2 <_usb_d_dev_trans_done+0xe>
     ccc:	7cc2      	ldrb	r2, [r0, #19]
     cce:	0652      	lsls	r2, r2, #25
     cd0:	d400      	bmi.n	cd4 <_usb_d_dev_trans_done+0x10>
     cd2:	bd10      	pop	{r4, pc}
     cd4:	7cc2      	ldrb	r2, [r0, #19]
     cd6:	2440      	movs	r4, #64	; 0x40
     cd8:	43a2      	bics	r2, r4
     cda:	74c2      	strb	r2, [r0, #19]
     cdc:	6882      	ldr	r2, [r0, #8]
     cde:	4802      	ldr	r0, [pc, #8]	; (ce8 <_usb_d_dev_trans_done+0x24>)
     ce0:	6f04      	ldr	r4, [r0, #112]	; 0x70
     ce2:	0018      	movs	r0, r3
     ce4:	47a0      	blx	r4
     ce6:	e7f4      	b.n	cd2 <_usb_d_dev_trans_done+0xe>
     ce8:	200002ec 	.word	0x200002ec

00000cec <_usb_d_dev_trans_stop>:
     cec:	b530      	push	{r4, r5, lr}
     cee:	b083      	sub	sp, #12
     cf0:	7c83      	ldrb	r3, [r0, #18]
     cf2:	ac01      	add	r4, sp, #4
     cf4:	2525      	movs	r5, #37	; 0x25
     cf6:	7025      	strb	r5, [r4, #0]
     cf8:	3525      	adds	r5, #37	; 0x25
     cfa:	7065      	strb	r5, [r4, #1]
     cfc:	2bff      	cmp	r3, #255	; 0xff
     cfe:	d01b      	beq.n	d38 <_usb_d_dev_trans_stop+0x4c>
     d00:	7cc4      	ldrb	r4, [r0, #19]
     d02:	0664      	lsls	r4, r4, #25
     d04:	d518      	bpl.n	d38 <_usb_d_dev_trans_stop+0x4c>
     d06:	240f      	movs	r4, #15
     d08:	4023      	ands	r3, r4
     d0a:	2900      	cmp	r1, #0
     d0c:	d016      	beq.n	d3c <_usb_d_dev_trans_stop+0x50>
     d0e:	015c      	lsls	r4, r3, #5
     d10:	4d0e      	ldr	r5, [pc, #56]	; (d4c <_usb_d_dev_trans_stop+0x60>)
     d12:	46ac      	mov	ip, r5
     d14:	4464      	add	r4, ip
     d16:	2580      	movs	r5, #128	; 0x80
     d18:	7125      	strb	r5, [r4, #4]
     d1a:	ac01      	add	r4, sp, #4
     d1c:	5c64      	ldrb	r4, [r4, r1]
     d1e:	0159      	lsls	r1, r3, #5
     d20:	4d0a      	ldr	r5, [pc, #40]	; (d4c <_usb_d_dev_trans_stop+0x60>)
     d22:	46ac      	mov	ip, r5
     d24:	4461      	add	r1, ip
     d26:	71cc      	strb	r4, [r1, #7]
     d28:	015b      	lsls	r3, r3, #5
     d2a:	4909      	ldr	r1, [pc, #36]	; (d50 <_usb_d_dev_trans_stop+0x64>)
     d2c:	468c      	mov	ip, r1
     d2e:	4463      	add	r3, ip
     d30:	701c      	strb	r4, [r3, #0]
     d32:	0011      	movs	r1, r2
     d34:	4b07      	ldr	r3, [pc, #28]	; (d54 <_usb_d_dev_trans_stop+0x68>)
     d36:	4798      	blx	r3
     d38:	b003      	add	sp, #12
     d3a:	bd30      	pop	{r4, r5, pc}
     d3c:	015c      	lsls	r4, r3, #5
     d3e:	4d03      	ldr	r5, [pc, #12]	; (d4c <_usb_d_dev_trans_stop+0x60>)
     d40:	46ac      	mov	ip, r5
     d42:	4464      	add	r4, ip
     d44:	2540      	movs	r5, #64	; 0x40
     d46:	7165      	strb	r5, [r4, #5]
     d48:	e7e7      	b.n	d1a <_usb_d_dev_trans_stop+0x2e>
     d4a:	46c0      	nop			; (mov r8, r8)
     d4c:	41005100 	.word	0x41005100
     d50:	41005108 	.word	0x41005108
     d54:	00000cc5 	.word	0x00000cc5

00000d58 <_usb_d_dev_handle_trfail>:
     d58:	b570      	push	{r4, r5, r6, lr}
     d5a:	b082      	sub	sp, #8
     d5c:	7c83      	ldrb	r3, [r0, #18]
     d5e:	220f      	movs	r2, #15
     d60:	4013      	ands	r3, r2
     d62:	aa01      	add	r2, sp, #4
     d64:	2404      	movs	r4, #4
     d66:	7014      	strb	r4, [r2, #0]
     d68:	3404      	adds	r4, #4
     d6a:	7054      	strb	r4, [r2, #1]
     d6c:	015d      	lsls	r5, r3, #5
     d6e:	2900      	cmp	r1, #0
     d70:	d031      	beq.n	dd6 <_usb_d_dev_handle_trfail+0x7e>
     d72:	001a      	movs	r2, r3
     d74:	3208      	adds	r2, #8
     d76:	0152      	lsls	r2, r2, #5
     d78:	4c32      	ldr	r4, [pc, #200]	; (e44 <_usb_d_dev_handle_trfail+0xec>)
     d7a:	5d14      	ldrb	r4, [r2, r4]
     d7c:	0664      	lsls	r4, r4, #25
     d7e:	0f64      	lsrs	r4, r4, #29
     d80:	010a      	lsls	r2, r1, #4
     d82:	1952      	adds	r2, r2, r5
     d84:	4d30      	ldr	r5, [pc, #192]	; (e48 <_usb_d_dev_handle_trfail+0xf0>)
     d86:	18aa      	adds	r2, r5, r2
     d88:	7a95      	ldrb	r5, [r2, #10]
     d8a:	b2ed      	uxtb	r5, r5
     d8c:	2c02      	cmp	r4, #2
     d8e:	d02a      	beq.n	de6 <_usb_d_dev_handle_trfail+0x8e>
     d90:	07ac      	lsls	r4, r5, #30
     d92:	d541      	bpl.n	e18 <_usb_d_dev_handle_trfail+0xc0>
     d94:	7cc5      	ldrb	r5, [r0, #19]
     d96:	7a94      	ldrb	r4, [r2, #10]
     d98:	2602      	movs	r6, #2
     d9a:	43b4      	bics	r4, r6
     d9c:	7294      	strb	r4, [r2, #10]
     d9e:	aa01      	add	r2, sp, #4
     da0:	5c54      	ldrb	r4, [r2, r1]
     da2:	015a      	lsls	r2, r3, #5
     da4:	4e29      	ldr	r6, [pc, #164]	; (e4c <_usb_d_dev_handle_trfail+0xf4>)
     da6:	46b4      	mov	ip, r6
     da8:	4462      	add	r2, ip
     daa:	71d4      	strb	r4, [r2, #7]
     dac:	015b      	lsls	r3, r3, #5
     dae:	4a28      	ldr	r2, [pc, #160]	; (e50 <_usb_d_dev_handle_trfail+0xf8>)
     db0:	4694      	mov	ip, r2
     db2:	4463      	add	r3, ip
     db4:	701c      	strb	r4, [r3, #0]
     db6:	2307      	movs	r3, #7
     db8:	402b      	ands	r3, r5
     dba:	2b01      	cmp	r3, #1
     dbc:	d13f      	bne.n	e3e <_usb_d_dev_handle_trfail+0xe6>
     dbe:	7cc3      	ldrb	r3, [r0, #19]
     dc0:	065b      	lsls	r3, r3, #25
     dc2:	d53c      	bpl.n	e3e <_usb_d_dev_handle_trfail+0xe6>
     dc4:	7cc3      	ldrb	r3, [r0, #19]
     dc6:	09db      	lsrs	r3, r3, #7
     dc8:	4299      	cmp	r1, r3
     dca:	d038      	beq.n	e3e <_usb_d_dev_handle_trfail+0xe6>
     dcc:	2200      	movs	r2, #0
     dce:	0019      	movs	r1, r3
     dd0:	4b20      	ldr	r3, [pc, #128]	; (e54 <_usb_d_dev_handle_trfail+0xfc>)
     dd2:	4798      	blx	r3
     dd4:	e033      	b.n	e3e <_usb_d_dev_handle_trfail+0xe6>
     dd6:	001a      	movs	r2, r3
     dd8:	3208      	adds	r2, #8
     dda:	0152      	lsls	r2, r2, #5
     ddc:	4c19      	ldr	r4, [pc, #100]	; (e44 <_usb_d_dev_handle_trfail+0xec>)
     dde:	5d14      	ldrb	r4, [r2, r4]
     de0:	2207      	movs	r2, #7
     de2:	4014      	ands	r4, r2
     de4:	e7cc      	b.n	d80 <_usb_d_dev_handle_trfail+0x28>
     de6:	07ec      	lsls	r4, r5, #31
     de8:	d5d2      	bpl.n	d90 <_usb_d_dev_handle_trfail+0x38>
     dea:	7a94      	ldrb	r4, [r2, #10]
     dec:	2501      	movs	r5, #1
     dee:	43ac      	bics	r4, r5
     df0:	7294      	strb	r4, [r2, #10]
     df2:	aa01      	add	r2, sp, #4
     df4:	5c54      	ldrb	r4, [r2, r1]
     df6:	015a      	lsls	r2, r3, #5
     df8:	4d14      	ldr	r5, [pc, #80]	; (e4c <_usb_d_dev_handle_trfail+0xf4>)
     dfa:	46ac      	mov	ip, r5
     dfc:	4462      	add	r2, ip
     dfe:	71d4      	strb	r4, [r2, #7]
     e00:	015b      	lsls	r3, r3, #5
     e02:	4a13      	ldr	r2, [pc, #76]	; (e50 <_usb_d_dev_handle_trfail+0xf8>)
     e04:	4694      	mov	ip, r2
     e06:	4463      	add	r3, ip
     e08:	701c      	strb	r4, [r3, #0]
     e0a:	1e4b      	subs	r3, r1, #1
     e0c:	4199      	sbcs	r1, r3
     e0e:	b2c9      	uxtb	r1, r1
     e10:	2204      	movs	r2, #4
     e12:	4b10      	ldr	r3, [pc, #64]	; (e54 <_usb_d_dev_handle_trfail+0xfc>)
     e14:	4798      	blx	r3
     e16:	e012      	b.n	e3e <_usb_d_dev_handle_trfail+0xe6>
     e18:	005a      	lsls	r2, r3, #1
     e1a:	1852      	adds	r2, r2, r1
     e1c:	0112      	lsls	r2, r2, #4
     e1e:	480a      	ldr	r0, [pc, #40]	; (e48 <_usb_d_dev_handle_trfail+0xf0>)
     e20:	1882      	adds	r2, r0, r2
     e22:	2000      	movs	r0, #0
     e24:	7290      	strb	r0, [r2, #10]
     e26:	aa01      	add	r2, sp, #4
     e28:	5c51      	ldrb	r1, [r2, r1]
     e2a:	015a      	lsls	r2, r3, #5
     e2c:	4807      	ldr	r0, [pc, #28]	; (e4c <_usb_d_dev_handle_trfail+0xf4>)
     e2e:	4684      	mov	ip, r0
     e30:	4462      	add	r2, ip
     e32:	71d1      	strb	r1, [r2, #7]
     e34:	015b      	lsls	r3, r3, #5
     e36:	4a06      	ldr	r2, [pc, #24]	; (e50 <_usb_d_dev_handle_trfail+0xf8>)
     e38:	4694      	mov	ip, r2
     e3a:	4463      	add	r3, ip
     e3c:	7019      	strb	r1, [r3, #0]
     e3e:	b002      	add	sp, #8
     e40:	bd70      	pop	{r4, r5, r6, pc}
     e42:	46c0      	nop			; (mov r8, r8)
     e44:	41005000 	.word	0x41005000
     e48:	200002ec 	.word	0x200002ec
     e4c:	41005100 	.word	0x41005100
     e50:	41005108 	.word	0x41005108
     e54:	00000ced 	.word	0x00000ced

00000e58 <_usb_d_dev_reset_epts>:
     e58:	b5f0      	push	{r4, r5, r6, r7, lr}
     e5a:	46c6      	mov	lr, r8
     e5c:	b500      	push	{lr}
     e5e:	4d0c      	ldr	r5, [pc, #48]	; (e90 <_usb_d_dev_reset_epts+0x38>)
     e60:	002c      	movs	r4, r5
     e62:	3474      	adds	r4, #116	; 0x74
     e64:	3529      	adds	r5, #41	; 0x29
     e66:	35ff      	adds	r5, #255	; 0xff
     e68:	4b0a      	ldr	r3, [pc, #40]	; (e94 <_usb_d_dev_reset_epts+0x3c>)
     e6a:	4698      	mov	r8, r3
     e6c:	27ff      	movs	r7, #255	; 0xff
     e6e:	2600      	movs	r6, #0
     e70:	2103      	movs	r1, #3
     e72:	0020      	movs	r0, r4
     e74:	47c0      	blx	r8
     e76:	74a7      	strb	r7, [r4, #18]
     e78:	74e6      	strb	r6, [r4, #19]
     e7a:	3414      	adds	r4, #20
     e7c:	42ac      	cmp	r4, r5
     e7e:	d1f7      	bne.n	e70 <_usb_d_dev_reset_epts+0x18>
     e80:	2260      	movs	r2, #96	; 0x60
     e82:	2100      	movs	r1, #0
     e84:	4802      	ldr	r0, [pc, #8]	; (e90 <_usb_d_dev_reset_epts+0x38>)
     e86:	4b04      	ldr	r3, [pc, #16]	; (e98 <_usb_d_dev_reset_epts+0x40>)
     e88:	4798      	blx	r3
     e8a:	bc04      	pop	{r2}
     e8c:	4690      	mov	r8, r2
     e8e:	bdf0      	pop	{r4, r5, r6, r7, pc}
     e90:	200002ec 	.word	0x200002ec
     e94:	00000cc5 	.word	0x00000cc5
     e98:	000034d3 	.word	0x000034d3

00000e9c <_usb_d_dev_in_next>:
     e9c:	b5f0      	push	{r4, r5, r6, r7, lr}
     e9e:	46c6      	mov	lr, r8
     ea0:	b500      	push	{lr}
     ea2:	0004      	movs	r4, r0
     ea4:	000e      	movs	r6, r1
     ea6:	7c83      	ldrb	r3, [r0, #18]
     ea8:	250f      	movs	r5, #15
     eaa:	401d      	ands	r5, r3
     eac:	2900      	cmp	r1, #0
     eae:	d100      	bne.n	eb2 <_usb_d_dev_in_next+0x16>
     eb0:	e0aa      	b.n	1008 <_usb_d_dev_in_next+0x16c>
     eb2:	016a      	lsls	r2, r5, #5
     eb4:	4b5a      	ldr	r3, [pc, #360]	; (1020 <_usb_d_dev_in_next+0x184>)
     eb6:	189b      	adds	r3, r3, r2
     eb8:	6958      	ldr	r0, [r3, #20]
     eba:	0480      	lsls	r0, r0, #18
     ebc:	0c80      	lsrs	r0, r0, #18
     ebe:	8a23      	ldrh	r3, [r4, #16]
     ec0:	4a58      	ldr	r2, [pc, #352]	; (1024 <_usb_d_dev_in_next+0x188>)
     ec2:	4293      	cmp	r3, r2
     ec4:	d100      	bne.n	ec8 <_usb_d_dev_in_next+0x2c>
     ec6:	e09a      	b.n	ffe <_usb_d_dev_in_next+0x162>
     ec8:	3b01      	subs	r3, #1
     eca:	b29a      	uxth	r2, r3
     ecc:	7ce3      	ldrb	r3, [r4, #19]
     ece:	2707      	movs	r7, #7
     ed0:	401f      	ands	r7, r3
     ed2:	2e00      	cmp	r6, #0
     ed4:	d005      	beq.n	ee2 <_usb_d_dev_in_next+0x46>
     ed6:	016b      	lsls	r3, r5, #5
     ed8:	4953      	ldr	r1, [pc, #332]	; (1028 <_usb_d_dev_in_next+0x18c>)
     eda:	468c      	mov	ip, r1
     edc:	4463      	add	r3, ip
     ede:	2102      	movs	r1, #2
     ee0:	71d9      	strb	r1, [r3, #7]
     ee2:	68a3      	ldr	r3, [r4, #8]
     ee4:	18c1      	adds	r1, r0, r3
     ee6:	60a1      	str	r1, [r4, #8]
     ee8:	6863      	ldr	r3, [r4, #4]
     eea:	4299      	cmp	r1, r3
     eec:	d24a      	bcs.n	f84 <_usb_d_dev_in_next+0xe8>
     eee:	1a5b      	subs	r3, r3, r1
     ef0:	b29b      	uxth	r3, r3
     ef2:	7ce2      	ldrb	r2, [r4, #19]
     ef4:	0692      	lsls	r2, r2, #26
     ef6:	d535      	bpl.n	f64 <_usb_d_dev_in_next+0xc8>
     ef8:	8a22      	ldrh	r2, [r4, #16]
     efa:	1c10      	adds	r0, r2, #0
     efc:	b292      	uxth	r2, r2
     efe:	429a      	cmp	r2, r3
     f00:	d900      	bls.n	f04 <_usb_d_dev_in_next+0x68>
     f02:	1c18      	adds	r0, r3, #0
     f04:	b283      	uxth	r3, r0
     f06:	4698      	mov	r8, r3
     f08:	6823      	ldr	r3, [r4, #0]
     f0a:	469c      	mov	ip, r3
     f0c:	4461      	add	r1, ip
     f0e:	4642      	mov	r2, r8
     f10:	68e0      	ldr	r0, [r4, #12]
     f12:	4b46      	ldr	r3, [pc, #280]	; (102c <_usb_d_dev_in_next+0x190>)
     f14:	4798      	blx	r3
     f16:	68e1      	ldr	r1, [r4, #12]
     f18:	016a      	lsls	r2, r5, #5
     f1a:	4b41      	ldr	r3, [pc, #260]	; (1020 <_usb_d_dev_in_next+0x184>)
     f1c:	189b      	adds	r3, r3, r2
     f1e:	6119      	str	r1, [r3, #16]
     f20:	016a      	lsls	r2, r5, #5
     f22:	4b3f      	ldr	r3, [pc, #252]	; (1020 <_usb_d_dev_in_next+0x184>)
     f24:	189b      	adds	r3, r3, r2
     f26:	695a      	ldr	r2, [r3, #20]
     f28:	4641      	mov	r1, r8
     f2a:	0489      	lsls	r1, r1, #18
     f2c:	0c89      	lsrs	r1, r1, #18
     f2e:	0b92      	lsrs	r2, r2, #14
     f30:	0392      	lsls	r2, r2, #14
     f32:	430a      	orrs	r2, r1
     f34:	615a      	str	r2, [r3, #20]
     f36:	695a      	ldr	r2, [r3, #20]
     f38:	493d      	ldr	r1, [pc, #244]	; (1030 <_usb_d_dev_in_next+0x194>)
     f3a:	400a      	ands	r2, r1
     f3c:	615a      	str	r2, [r3, #20]
     f3e:	2e00      	cmp	r6, #0
     f40:	d107      	bne.n	f52 <_usb_d_dev_in_next+0xb6>
     f42:	2f01      	cmp	r7, #1
     f44:	d059      	beq.n	ffa <_usb_d_dev_in_next+0x15e>
     f46:	224a      	movs	r2, #74	; 0x4a
     f48:	016b      	lsls	r3, r5, #5
     f4a:	493a      	ldr	r1, [pc, #232]	; (1034 <_usb_d_dev_in_next+0x198>)
     f4c:	468c      	mov	ip, r1
     f4e:	4463      	add	r3, ip
     f50:	701a      	strb	r2, [r3, #0]
     f52:	016d      	lsls	r5, r5, #5
     f54:	4b34      	ldr	r3, [pc, #208]	; (1028 <_usb_d_dev_in_next+0x18c>)
     f56:	469c      	mov	ip, r3
     f58:	4465      	add	r5, ip
     f5a:	2380      	movs	r3, #128	; 0x80
     f5c:	716b      	strb	r3, [r5, #5]
     f5e:	bc04      	pop	{r2}
     f60:	4690      	mov	r8, r2
     f62:	bdf0      	pop	{r4, r5, r6, r7, pc}
     f64:	1c1a      	adds	r2, r3, #0
     f66:	2080      	movs	r0, #128	; 0x80
     f68:	0180      	lsls	r0, r0, #6
     f6a:	4283      	cmp	r3, r0
     f6c:	d901      	bls.n	f72 <_usb_d_dev_in_next+0xd6>
     f6e:	4b32      	ldr	r3, [pc, #200]	; (1038 <_usb_d_dev_in_next+0x19c>)
     f70:	881a      	ldrh	r2, [r3, #0]
     f72:	b293      	uxth	r3, r2
     f74:	4698      	mov	r8, r3
     f76:	6823      	ldr	r3, [r4, #0]
     f78:	1859      	adds	r1, r3, r1
     f7a:	016a      	lsls	r2, r5, #5
     f7c:	4b28      	ldr	r3, [pc, #160]	; (1020 <_usb_d_dev_in_next+0x184>)
     f7e:	189b      	adds	r3, r3, r2
     f80:	6119      	str	r1, [r3, #16]
     f82:	e7cd      	b.n	f20 <_usb_d_dev_in_next+0x84>
     f84:	7ce3      	ldrb	r3, [r4, #19]
     f86:	06db      	lsls	r3, r3, #27
     f88:	d50f      	bpl.n	faa <_usb_d_dev_in_next+0x10e>
     f8a:	7ce3      	ldrb	r3, [r4, #19]
     f8c:	2210      	movs	r2, #16
     f8e:	4393      	bics	r3, r2
     f90:	74e3      	strb	r3, [r4, #19]
     f92:	016a      	lsls	r2, r5, #5
     f94:	4b22      	ldr	r3, [pc, #136]	; (1020 <_usb_d_dev_in_next+0x184>)
     f96:	189b      	adds	r3, r3, r2
     f98:	695a      	ldr	r2, [r3, #20]
     f9a:	0b92      	lsrs	r2, r2, #14
     f9c:	0392      	lsls	r2, r2, #14
     f9e:	615a      	str	r2, [r3, #20]
     fa0:	695a      	ldr	r2, [r3, #20]
     fa2:	4923      	ldr	r1, [pc, #140]	; (1030 <_usb_d_dev_in_next+0x194>)
     fa4:	400a      	ands	r2, r1
     fa6:	615a      	str	r2, [r3, #20]
     fa8:	e7c9      	b.n	f3e <_usb_d_dev_in_next+0xa2>
     faa:	2f01      	cmp	r7, #1
     fac:	d00e      	beq.n	fcc <_usb_d_dev_in_next+0x130>
     fae:	016d      	lsls	r5, r5, #5
     fb0:	4b22      	ldr	r3, [pc, #136]	; (103c <_usb_d_dev_in_next+0x1a0>)
     fb2:	469c      	mov	ip, r3
     fb4:	4465      	add	r5, ip
     fb6:	234a      	movs	r3, #74	; 0x4a
     fb8:	702b      	strb	r3, [r5, #0]
     fba:	8a21      	ldrh	r1, [r4, #16]
     fbc:	4002      	ands	r2, r0
     fbe:	4291      	cmp	r1, r2
     fc0:	d00b      	beq.n	fda <_usb_d_dev_in_next+0x13e>
     fc2:	2100      	movs	r1, #0
     fc4:	0020      	movs	r0, r4
     fc6:	4b1e      	ldr	r3, [pc, #120]	; (1040 <_usb_d_dev_in_next+0x1a4>)
     fc8:	4798      	blx	r3
     fca:	e7c8      	b.n	f5e <_usb_d_dev_in_next+0xc2>
     fcc:	016d      	lsls	r5, r5, #5
     fce:	4b1b      	ldr	r3, [pc, #108]	; (103c <_usb_d_dev_in_next+0x1a0>)
     fd0:	469c      	mov	ip, r3
     fd2:	4465      	add	r5, ip
     fd4:	234b      	movs	r3, #75	; 0x4b
     fd6:	702b      	strb	r3, [r5, #0]
     fd8:	e7ef      	b.n	fba <_usb_d_dev_in_next+0x11e>
     fda:	7ce3      	ldrb	r3, [r4, #19]
     fdc:	2240      	movs	r2, #64	; 0x40
     fde:	4393      	bics	r3, r2
     fe0:	74e3      	strb	r3, [r4, #19]
     fe2:	7ca0      	ldrb	r0, [r4, #18]
     fe4:	4b0e      	ldr	r3, [pc, #56]	; (1020 <_usb_d_dev_in_next+0x184>)
     fe6:	6edb      	ldr	r3, [r3, #108]	; 0x6c
     fe8:	68a1      	ldr	r1, [r4, #8]
     fea:	4798      	blx	r3
     fec:	2800      	cmp	r0, #0
     fee:	d1b6      	bne.n	f5e <_usb_d_dev_in_next+0xc2>
     ff0:	7ce3      	ldrb	r3, [r4, #19]
     ff2:	2240      	movs	r2, #64	; 0x40
     ff4:	4313      	orrs	r3, r2
     ff6:	74e3      	strb	r3, [r4, #19]
     ff8:	e7e3      	b.n	fc2 <_usb_d_dev_in_next+0x126>
     ffa:	224e      	movs	r2, #78	; 0x4e
     ffc:	e7a4      	b.n	f48 <_usb_d_dev_in_next+0xac>
     ffe:	7ce7      	ldrb	r7, [r4, #19]
    1000:	2307      	movs	r3, #7
    1002:	401f      	ands	r7, r3
    1004:	4a07      	ldr	r2, [pc, #28]	; (1024 <_usb_d_dev_in_next+0x188>)
    1006:	e766      	b.n	ed6 <_usb_d_dev_in_next+0x3a>
    1008:	8a03      	ldrh	r3, [r0, #16]
    100a:	4a06      	ldr	r2, [pc, #24]	; (1024 <_usb_d_dev_in_next+0x188>)
    100c:	2000      	movs	r0, #0
    100e:	4293      	cmp	r3, r2
    1010:	d000      	beq.n	1014 <_usb_d_dev_in_next+0x178>
    1012:	e759      	b.n	ec8 <_usb_d_dev_in_next+0x2c>
    1014:	7ce3      	ldrb	r3, [r4, #19]
    1016:	2707      	movs	r7, #7
    1018:	401f      	ands	r7, r3
    101a:	2000      	movs	r0, #0
    101c:	4a01      	ldr	r2, [pc, #4]	; (1024 <_usb_d_dev_in_next+0x188>)
    101e:	e760      	b.n	ee2 <_usb_d_dev_in_next+0x46>
    1020:	200002ec 	.word	0x200002ec
    1024:	000003ff 	.word	0x000003ff
    1028:	41005100 	.word	0x41005100
    102c:	000034c1 	.word	0x000034c1
    1030:	f0003fff 	.word	0xf0003fff
    1034:	41005109 	.word	0x41005109
    1038:	00003f26 	.word	0x00003f26
    103c:	41005108 	.word	0x41005108
    1040:	00000cc5 	.word	0x00000cc5

00001044 <_usb_d_dev_out_next>:
    1044:	b5f8      	push	{r3, r4, r5, r6, r7, lr}
    1046:	46de      	mov	lr, fp
    1048:	4657      	mov	r7, sl
    104a:	464e      	mov	r6, r9
    104c:	4645      	mov	r5, r8
    104e:	b5e0      	push	{r5, r6, r7, lr}
    1050:	0004      	movs	r4, r0
    1052:	4688      	mov	r8, r1
    1054:	7c83      	ldrb	r3, [r0, #18]
    1056:	250f      	movs	r5, #15
    1058:	401d      	ands	r5, r3
    105a:	2900      	cmp	r1, #0
    105c:	d057      	beq.n	110e <_usb_d_dev_out_next+0xca>
    105e:	016a      	lsls	r2, r5, #5
    1060:	4b7d      	ldr	r3, [pc, #500]	; (1258 <_usb_d_dev_out_next+0x214>)
    1062:	189b      	adds	r3, r3, r2
    1064:	685a      	ldr	r2, [r3, #4]
    1066:	0112      	lsls	r2, r2, #4
    1068:	0c92      	lsrs	r2, r2, #18
    106a:	4692      	mov	sl, r2
    106c:	685f      	ldr	r7, [r3, #4]
    106e:	04bf      	lsls	r7, r7, #18
    1070:	0cbf      	lsrs	r7, r7, #18
    1072:	46bb      	mov	fp, r7
    1074:	8a06      	ldrh	r6, [r0, #16]
    1076:	4b79      	ldr	r3, [pc, #484]	; (125c <_usb_d_dev_out_next+0x218>)
    1078:	429e      	cmp	r6, r3
    107a:	d100      	bne.n	107e <_usb_d_dev_out_next+0x3a>
    107c:	e0cd      	b.n	121a <_usb_d_dev_out_next+0x1d6>
    107e:	3e01      	subs	r6, #1
    1080:	b2b6      	uxth	r6, r6
    1082:	465f      	mov	r7, fp
    1084:	4037      	ands	r7, r6
    1086:	7ce3      	ldrb	r3, [r4, #19]
    1088:	2207      	movs	r2, #7
    108a:	401a      	ands	r2, r3
    108c:	4691      	mov	r9, r2
    108e:	4643      	mov	r3, r8
    1090:	2b00      	cmp	r3, #0
    1092:	d005      	beq.n	10a0 <_usb_d_dev_out_next+0x5c>
    1094:	016b      	lsls	r3, r5, #5
    1096:	4a72      	ldr	r2, [pc, #456]	; (1260 <_usb_d_dev_out_next+0x21c>)
    1098:	4694      	mov	ip, r2
    109a:	4463      	add	r3, ip
    109c:	2201      	movs	r2, #1
    109e:	71da      	strb	r2, [r3, #7]
    10a0:	7ce3      	ldrb	r3, [r4, #19]
    10a2:	069b      	lsls	r3, r3, #26
    10a4:	d50f      	bpl.n	10c6 <_usb_d_dev_out_next+0x82>
    10a6:	6863      	ldr	r3, [r4, #4]
    10a8:	2b00      	cmp	r3, #0
    10aa:	d039      	beq.n	1120 <_usb_d_dev_out_next+0xdc>
    10ac:	68a0      	ldr	r0, [r4, #8]
    10ae:	1a1b      	subs	r3, r3, r0
    10b0:	b29b      	uxth	r3, r3
    10b2:	6822      	ldr	r2, [r4, #0]
    10b4:	4694      	mov	ip, r2
    10b6:	4460      	add	r0, ip
    10b8:	68e1      	ldr	r1, [r4, #12]
    10ba:	001a      	movs	r2, r3
    10bc:	42bb      	cmp	r3, r7
    10be:	d900      	bls.n	10c2 <_usb_d_dev_out_next+0x7e>
    10c0:	003a      	movs	r2, r7
    10c2:	4b68      	ldr	r3, [pc, #416]	; (1264 <_usb_d_dev_out_next+0x220>)
    10c4:	4798      	blx	r3
    10c6:	6863      	ldr	r3, [r4, #4]
    10c8:	2b00      	cmp	r3, #0
    10ca:	d029      	beq.n	1120 <_usb_d_dev_out_next+0xdc>
    10cc:	4642      	mov	r2, r8
    10ce:	2a00      	cmp	r2, #0
    10d0:	d042      	beq.n	1158 <_usb_d_dev_out_next+0x114>
    10d2:	8a22      	ldrh	r2, [r4, #16]
    10d4:	42ba      	cmp	r2, r7
    10d6:	d93f      	bls.n	1158 <_usb_d_dev_out_next+0x114>
    10d8:	7ce3      	ldrb	r3, [r4, #19]
    10da:	2210      	movs	r2, #16
    10dc:	4393      	bics	r3, r2
    10de:	74e3      	strb	r3, [r4, #19]
    10e0:	68a3      	ldr	r3, [r4, #8]
    10e2:	445b      	add	r3, fp
    10e4:	60a3      	str	r3, [r4, #8]
    10e6:	464b      	mov	r3, r9
    10e8:	2b01      	cmp	r3, #1
    10ea:	d100      	bne.n	10ee <_usb_d_dev_out_next+0xaa>
    10ec:	e087      	b.n	11fe <_usb_d_dev_out_next+0x1ba>
    10ee:	016b      	lsls	r3, r5, #5
    10f0:	4a5d      	ldr	r2, [pc, #372]	; (1268 <_usb_d_dev_out_next+0x224>)
    10f2:	4694      	mov	ip, r2
    10f4:	4463      	add	r3, ip
    10f6:	2225      	movs	r2, #37	; 0x25
    10f8:	701a      	strb	r2, [r3, #0]
    10fa:	2d00      	cmp	r5, #0
    10fc:	d102      	bne.n	1104 <_usb_d_dev_out_next+0xc0>
    10fe:	4b56      	ldr	r3, [pc, #344]	; (1258 <_usb_d_dev_out_next+0x214>)
    1100:	68e2      	ldr	r2, [r4, #12]
    1102:	601a      	str	r2, [r3, #0]
    1104:	2100      	movs	r1, #0
    1106:	0020      	movs	r0, r4
    1108:	4b58      	ldr	r3, [pc, #352]	; (126c <_usb_d_dev_out_next+0x228>)
    110a:	4798      	blx	r3
    110c:	e059      	b.n	11c2 <_usb_d_dev_out_next+0x17e>
    110e:	8a06      	ldrh	r6, [r0, #16]
    1110:	4b52      	ldr	r3, [pc, #328]	; (125c <_usb_d_dev_out_next+0x218>)
    1112:	429e      	cmp	r6, r3
    1114:	d100      	bne.n	1118 <_usb_d_dev_out_next+0xd4>
    1116:	e08e      	b.n	1236 <_usb_d_dev_out_next+0x1f2>
    1118:	2300      	movs	r3, #0
    111a:	469b      	mov	fp, r3
    111c:	469a      	mov	sl, r3
    111e:	e7ae      	b.n	107e <_usb_d_dev_out_next+0x3a>
    1120:	7ce3      	ldrb	r3, [r4, #19]
    1122:	06db      	lsls	r3, r3, #27
    1124:	d400      	bmi.n	1128 <_usb_d_dev_out_next+0xe4>
    1126:	e07f      	b.n	1228 <_usb_d_dev_out_next+0x1e4>
    1128:	7ce3      	ldrb	r3, [r4, #19]
    112a:	2210      	movs	r2, #16
    112c:	4393      	bics	r3, r2
    112e:	2220      	movs	r2, #32
    1130:	4313      	orrs	r3, r2
    1132:	74e3      	strb	r3, [r4, #19]
    1134:	4a48      	ldr	r2, [pc, #288]	; (1258 <_usb_d_dev_out_next+0x214>)
    1136:	016b      	lsls	r3, r5, #5
    1138:	68e1      	ldr	r1, [r4, #12]
    113a:	5099      	str	r1, [r3, r2]
    113c:	8a21      	ldrh	r1, [r4, #16]
    113e:	18d3      	adds	r3, r2, r3
    1140:	685a      	ldr	r2, [r3, #4]
    1142:	0489      	lsls	r1, r1, #18
    1144:	0909      	lsrs	r1, r1, #4
    1146:	484a      	ldr	r0, [pc, #296]	; (1270 <_usb_d_dev_out_next+0x22c>)
    1148:	4002      	ands	r2, r0
    114a:	430a      	orrs	r2, r1
    114c:	605a      	str	r2, [r3, #4]
    114e:	685a      	ldr	r2, [r3, #4]
    1150:	0b92      	lsrs	r2, r2, #14
    1152:	0392      	lsls	r2, r2, #14
    1154:	605a      	str	r2, [r3, #4]
    1156:	e022      	b.n	119e <_usb_d_dev_out_next+0x15a>
    1158:	68a2      	ldr	r2, [r4, #8]
    115a:	4452      	add	r2, sl
    115c:	60a2      	str	r2, [r4, #8]
    115e:	4293      	cmp	r3, r2
    1160:	d9c1      	bls.n	10e6 <_usb_d_dev_out_next+0xa2>
    1162:	1a9b      	subs	r3, r3, r2
    1164:	b29b      	uxth	r3, r3
    1166:	7ce1      	ldrb	r1, [r4, #19]
    1168:	0689      	lsls	r1, r1, #26
    116a:	d530      	bpl.n	11ce <_usb_d_dev_out_next+0x18a>
    116c:	8a22      	ldrh	r2, [r4, #16]
    116e:	1c11      	adds	r1, r2, #0
    1170:	b292      	uxth	r2, r2
    1172:	429a      	cmp	r2, r3
    1174:	d900      	bls.n	1178 <_usb_d_dev_out_next+0x134>
    1176:	1c19      	adds	r1, r3, #0
    1178:	b28b      	uxth	r3, r1
    117a:	68e0      	ldr	r0, [r4, #12]
    117c:	016a      	lsls	r2, r5, #5
    117e:	4936      	ldr	r1, [pc, #216]	; (1258 <_usb_d_dev_out_next+0x214>)
    1180:	5050      	str	r0, [r2, r1]
    1182:	016a      	lsls	r2, r5, #5
    1184:	4934      	ldr	r1, [pc, #208]	; (1258 <_usb_d_dev_out_next+0x214>)
    1186:	1889      	adds	r1, r1, r2
    1188:	684a      	ldr	r2, [r1, #4]
    118a:	049b      	lsls	r3, r3, #18
    118c:	091b      	lsrs	r3, r3, #4
    118e:	4838      	ldr	r0, [pc, #224]	; (1270 <_usb_d_dev_out_next+0x22c>)
    1190:	4002      	ands	r2, r0
    1192:	4313      	orrs	r3, r2
    1194:	604b      	str	r3, [r1, #4]
    1196:	684b      	ldr	r3, [r1, #4]
    1198:	0b9b      	lsrs	r3, r3, #14
    119a:	039b      	lsls	r3, r3, #14
    119c:	604b      	str	r3, [r1, #4]
    119e:	4643      	mov	r3, r8
    11a0:	2b00      	cmp	r3, #0
    11a2:	d108      	bne.n	11b6 <_usb_d_dev_out_next+0x172>
    11a4:	2225      	movs	r2, #37	; 0x25
    11a6:	464b      	mov	r3, r9
    11a8:	2b01      	cmp	r3, #1
    11aa:	d02f      	beq.n	120c <_usb_d_dev_out_next+0x1c8>
    11ac:	016b      	lsls	r3, r5, #5
    11ae:	4931      	ldr	r1, [pc, #196]	; (1274 <_usb_d_dev_out_next+0x230>)
    11b0:	468c      	mov	ip, r1
    11b2:	4463      	add	r3, ip
    11b4:	701a      	strb	r2, [r3, #0]
    11b6:	016d      	lsls	r5, r5, #5
    11b8:	4b29      	ldr	r3, [pc, #164]	; (1260 <_usb_d_dev_out_next+0x21c>)
    11ba:	469c      	mov	ip, r3
    11bc:	4465      	add	r5, ip
    11be:	2340      	movs	r3, #64	; 0x40
    11c0:	712b      	strb	r3, [r5, #4]
    11c2:	bc3c      	pop	{r2, r3, r4, r5}
    11c4:	4690      	mov	r8, r2
    11c6:	4699      	mov	r9, r3
    11c8:	46a2      	mov	sl, r4
    11ca:	46ab      	mov	fp, r5
    11cc:	bdf8      	pop	{r3, r4, r5, r6, r7, pc}
    11ce:	8a21      	ldrh	r1, [r4, #16]
    11d0:	428b      	cmp	r3, r1
    11d2:	d90a      	bls.n	11ea <_usb_d_dev_out_next+0x1a6>
    11d4:	2180      	movs	r1, #128	; 0x80
    11d6:	0189      	lsls	r1, r1, #6
    11d8:	428b      	cmp	r3, r1
    11da:	d80d      	bhi.n	11f8 <_usb_d_dev_out_next+0x1b4>
    11dc:	43b3      	bics	r3, r6
    11de:	6821      	ldr	r1, [r4, #0]
    11e0:	188a      	adds	r2, r1, r2
    11e2:	0169      	lsls	r1, r5, #5
    11e4:	481c      	ldr	r0, [pc, #112]	; (1258 <_usb_d_dev_out_next+0x214>)
    11e6:	500a      	str	r2, [r1, r0]
    11e8:	e7cb      	b.n	1182 <_usb_d_dev_out_next+0x13e>
    11ea:	428b      	cmp	r3, r1
    11ec:	d2f7      	bcs.n	11de <_usb_d_dev_out_next+0x19a>
    11ee:	7ce1      	ldrb	r1, [r4, #19]
    11f0:	2020      	movs	r0, #32
    11f2:	4301      	orrs	r1, r0
    11f4:	74e1      	strb	r1, [r4, #19]
    11f6:	e7f2      	b.n	11de <_usb_d_dev_out_next+0x19a>
    11f8:	2380      	movs	r3, #128	; 0x80
    11fa:	019b      	lsls	r3, r3, #6
    11fc:	e7ef      	b.n	11de <_usb_d_dev_out_next+0x19a>
    11fe:	016b      	lsls	r3, r5, #5
    1200:	4a19      	ldr	r2, [pc, #100]	; (1268 <_usb_d_dev_out_next+0x224>)
    1202:	4694      	mov	ip, r2
    1204:	4463      	add	r3, ip
    1206:	222d      	movs	r2, #45	; 0x2d
    1208:	701a      	strb	r2, [r3, #0]
    120a:	e776      	b.n	10fa <_usb_d_dev_out_next+0xb6>
    120c:	016a      	lsls	r2, r5, #5
    120e:	4b12      	ldr	r3, [pc, #72]	; (1258 <_usb_d_dev_out_next+0x214>)
    1210:	189b      	adds	r3, r3, r2
    1212:	2200      	movs	r2, #0
    1214:	769a      	strb	r2, [r3, #26]
    1216:	322d      	adds	r2, #45	; 0x2d
    1218:	e7c8      	b.n	11ac <_usb_d_dev_out_next+0x168>
    121a:	05bf      	lsls	r7, r7, #22
    121c:	0dbf      	lsrs	r7, r7, #22
    121e:	7cc3      	ldrb	r3, [r0, #19]
    1220:	2207      	movs	r2, #7
    1222:	401a      	ands	r2, r3
    1224:	4691      	mov	r9, r2
    1226:	e735      	b.n	1094 <_usb_d_dev_out_next+0x50>
    1228:	4643      	mov	r3, r8
    122a:	2b00      	cmp	r3, #0
    122c:	d10c      	bne.n	1248 <_usb_d_dev_out_next+0x204>
    122e:	68a3      	ldr	r3, [r4, #8]
    1230:	4453      	add	r3, sl
    1232:	60a3      	str	r3, [r4, #8]
    1234:	e757      	b.n	10e6 <_usb_d_dev_out_next+0xa2>
    1236:	7cc3      	ldrb	r3, [r0, #19]
    1238:	2207      	movs	r2, #7
    123a:	401a      	ands	r2, r3
    123c:	4691      	mov	r9, r2
    123e:	2700      	movs	r7, #0
    1240:	2300      	movs	r3, #0
    1242:	469b      	mov	fp, r3
    1244:	469a      	mov	sl, r3
    1246:	e72b      	b.n	10a0 <_usb_d_dev_out_next+0x5c>
    1248:	8a23      	ldrh	r3, [r4, #16]
    124a:	42bb      	cmp	r3, r7
    124c:	d900      	bls.n	1250 <_usb_d_dev_out_next+0x20c>
    124e:	e743      	b.n	10d8 <_usb_d_dev_out_next+0x94>
    1250:	68a3      	ldr	r3, [r4, #8]
    1252:	4453      	add	r3, sl
    1254:	60a3      	str	r3, [r4, #8]
    1256:	e746      	b.n	10e6 <_usb_d_dev_out_next+0xa2>
    1258:	200002ec 	.word	0x200002ec
    125c:	000003ff 	.word	0x000003ff
    1260:	41005100 	.word	0x41005100
    1264:	000034c1 	.word	0x000034c1
    1268:	41005108 	.word	0x41005108
    126c:	00000cc5 	.word	0x00000cc5
    1270:	f0003fff 	.word	0xf0003fff
    1274:	41005109 	.word	0x41005109

00001278 <_usb_d_dev_init>:
    1278:	b510      	push	{r4, lr}
    127a:	4b31      	ldr	r3, [pc, #196]	; (1340 <_usb_d_dev_init+0xc8>)
    127c:	789b      	ldrb	r3, [r3, #2]
    127e:	07db      	lsls	r3, r3, #31
    1280:	d41f      	bmi.n	12c2 <_usb_d_dev_init+0x4a>
    1282:	492f      	ldr	r1, [pc, #188]	; (1340 <_usb_d_dev_init+0xc8>)
    1284:	2203      	movs	r2, #3
    1286:	788b      	ldrb	r3, [r1, #2]
    1288:	4213      	tst	r3, r2
    128a:	d1fc      	bne.n	1286 <_usb_d_dev_init+0xe>
    128c:	4b2c      	ldr	r3, [pc, #176]	; (1340 <_usb_d_dev_init+0xc8>)
    128e:	781b      	ldrb	r3, [r3, #0]
    1290:	079b      	lsls	r3, r3, #30
    1292:	d50e      	bpl.n	12b2 <_usb_d_dev_init+0x3a>
    1294:	4a2a      	ldr	r2, [pc, #168]	; (1340 <_usb_d_dev_init+0xc8>)
    1296:	7813      	ldrb	r3, [r2, #0]
    1298:	2102      	movs	r1, #2
    129a:	438b      	bics	r3, r1
    129c:	7013      	strb	r3, [r2, #0]
    129e:	0011      	movs	r1, r2
    12a0:	2203      	movs	r2, #3
    12a2:	788b      	ldrb	r3, [r1, #2]
    12a4:	4213      	tst	r3, r2
    12a6:	d1fc      	bne.n	12a2 <_usb_d_dev_init+0x2a>
    12a8:	4925      	ldr	r1, [pc, #148]	; (1340 <_usb_d_dev_init+0xc8>)
    12aa:	2202      	movs	r2, #2
    12ac:	788b      	ldrb	r3, [r1, #2]
    12ae:	4213      	tst	r3, r2
    12b0:	d1fc      	bne.n	12ac <_usb_d_dev_init+0x34>
    12b2:	2201      	movs	r2, #1
    12b4:	4b22      	ldr	r3, [pc, #136]	; (1340 <_usb_d_dev_init+0xc8>)
    12b6:	701a      	strb	r2, [r3, #0]
    12b8:	0019      	movs	r1, r3
    12ba:	3202      	adds	r2, #2
    12bc:	788b      	ldrb	r3, [r1, #2]
    12be:	4213      	tst	r3, r2
    12c0:	d1fc      	bne.n	12bc <_usb_d_dev_init+0x44>
    12c2:	491f      	ldr	r1, [pc, #124]	; (1340 <_usb_d_dev_init+0xc8>)
    12c4:	2201      	movs	r2, #1
    12c6:	788b      	ldrb	r3, [r1, #2]
    12c8:	4213      	tst	r3, r2
    12ca:	d1fc      	bne.n	12c6 <_usb_d_dev_init+0x4e>
    12cc:	4b1d      	ldr	r3, [pc, #116]	; (1344 <_usb_d_dev_init+0xcc>)
    12ce:	4a1e      	ldr	r2, [pc, #120]	; (1348 <_usb_d_dev_init+0xd0>)
    12d0:	661a      	str	r2, [r3, #96]	; 0x60
    12d2:	665a      	str	r2, [r3, #100]	; 0x64
    12d4:	669a      	str	r2, [r3, #104]	; 0x68
    12d6:	66da      	str	r2, [r3, #108]	; 0x6c
    12d8:	671a      	str	r2, [r3, #112]	; 0x70
    12da:	4b1c      	ldr	r3, [pc, #112]	; (134c <_usb_d_dev_init+0xd4>)
    12dc:	4798      	blx	r3
    12de:	4b1c      	ldr	r3, [pc, #112]	; (1350 <_usb_d_dev_init+0xd8>)
    12e0:	681b      	ldr	r3, [r3, #0]
    12e2:	0b5a      	lsrs	r2, r3, #13
    12e4:	211f      	movs	r1, #31
    12e6:	400a      	ands	r2, r1
    12e8:	0c98      	lsrs	r0, r3, #18
    12ea:	4001      	ands	r1, r0
    12ec:	019b      	lsls	r3, r3, #6
    12ee:	0f5b      	lsrs	r3, r3, #29
    12f0:	2a1f      	cmp	r2, #31
    12f2:	d01f      	beq.n	1334 <_usb_d_dev_init+0xbc>
    12f4:	291f      	cmp	r1, #31
    12f6:	d01f      	beq.n	1338 <_usb_d_dev_init+0xc0>
    12f8:	2b07      	cmp	r3, #7
    12fa:	d01f      	beq.n	133c <_usb_d_dev_init+0xc4>
    12fc:	0192      	lsls	r2, r2, #6
    12fe:	430a      	orrs	r2, r1
    1300:	031b      	lsls	r3, r3, #12
    1302:	4313      	orrs	r3, r2
    1304:	4a0e      	ldr	r2, [pc, #56]	; (1340 <_usb_d_dev_init+0xc8>)
    1306:	8513      	strh	r3, [r2, #40]	; 0x28
    1308:	78d3      	ldrb	r3, [r2, #3]
    130a:	2103      	movs	r1, #3
    130c:	430b      	orrs	r3, r1
    130e:	70d3      	strb	r3, [r2, #3]
    1310:	78d3      	ldrb	r3, [r2, #3]
    1312:	210c      	movs	r1, #12
    1314:	430b      	orrs	r3, r1
    1316:	70d3      	strb	r3, [r2, #3]
    1318:	2304      	movs	r3, #4
    131a:	7013      	strb	r3, [r2, #0]
    131c:	0011      	movs	r1, r2
    131e:	2203      	movs	r2, #3
    1320:	788b      	ldrb	r3, [r1, #2]
    1322:	4213      	tst	r3, r2
    1324:	d1fc      	bne.n	1320 <_usb_d_dev_init+0xa8>
    1326:	4b06      	ldr	r3, [pc, #24]	; (1340 <_usb_d_dev_init+0xc8>)
    1328:	4a06      	ldr	r2, [pc, #24]	; (1344 <_usb_d_dev_init+0xcc>)
    132a:	625a      	str	r2, [r3, #36]	; 0x24
    132c:	2201      	movs	r2, #1
    132e:	811a      	strh	r2, [r3, #8]
    1330:	2000      	movs	r0, #0
    1332:	bd10      	pop	{r4, pc}
    1334:	3a1a      	subs	r2, #26
    1336:	e7dd      	b.n	12f4 <_usb_d_dev_init+0x7c>
    1338:	3902      	subs	r1, #2
    133a:	e7dd      	b.n	12f8 <_usb_d_dev_init+0x80>
    133c:	3b02      	subs	r3, #2
    133e:	e7dd      	b.n	12fc <_usb_d_dev_init+0x84>
    1340:	41005000 	.word	0x41005000
    1344:	200002ec 	.word	0x200002ec
    1348:	00000c05 	.word	0x00000c05
    134c:	00000e59 	.word	0x00000e59
    1350:	00806024 	.word	0x00806024

00001354 <_usb_d_dev_enable>:
    1354:	4b10      	ldr	r3, [pc, #64]	; (1398 <_usb_d_dev_enable+0x44>)
    1356:	789b      	ldrb	r3, [r3, #2]
    1358:	079b      	lsls	r3, r3, #30
    135a:	d11a      	bne.n	1392 <_usb_d_dev_enable+0x3e>
    135c:	490e      	ldr	r1, [pc, #56]	; (1398 <_usb_d_dev_enable+0x44>)
    135e:	2203      	movs	r2, #3
    1360:	788b      	ldrb	r3, [r1, #2]
    1362:	4213      	tst	r3, r2
    1364:	d1fc      	bne.n	1360 <_usb_d_dev_enable+0xc>
    1366:	4b0c      	ldr	r3, [pc, #48]	; (1398 <_usb_d_dev_enable+0x44>)
    1368:	781b      	ldrb	r3, [r3, #0]
    136a:	b2db      	uxtb	r3, r3
    136c:	079a      	lsls	r2, r3, #30
    136e:	d408      	bmi.n	1382 <_usb_d_dev_enable+0x2e>
    1370:	2202      	movs	r2, #2
    1372:	4313      	orrs	r3, r2
    1374:	4a08      	ldr	r2, [pc, #32]	; (1398 <_usb_d_dev_enable+0x44>)
    1376:	7013      	strb	r3, [r2, #0]
    1378:	0011      	movs	r1, r2
    137a:	2203      	movs	r2, #3
    137c:	788b      	ldrb	r3, [r1, #2]
    137e:	4213      	tst	r3, r2
    1380:	d1fc      	bne.n	137c <_usb_d_dev_enable+0x28>
 */
__STATIC_INLINE void __NVIC_EnableIRQ(IRQn_Type IRQn)
{
  if ((int32_t)(IRQn) >= 0)
  {
    NVIC->ISER[0U] = (uint32_t)(1UL << (((uint32_t)IRQn) & 0x1FUL));
    1382:	2280      	movs	r2, #128	; 0x80
    1384:	4b05      	ldr	r3, [pc, #20]	; (139c <_usb_d_dev_enable+0x48>)
    1386:	601a      	str	r2, [r3, #0]
    1388:	4a05      	ldr	r2, [pc, #20]	; (13a0 <_usb_d_dev_enable+0x4c>)
    138a:	4b03      	ldr	r3, [pc, #12]	; (1398 <_usb_d_dev_enable+0x44>)
    138c:	831a      	strh	r2, [r3, #24]
    138e:	2000      	movs	r0, #0
    1390:	4770      	bx	lr
    1392:	2011      	movs	r0, #17
    1394:	4240      	negs	r0, r0
    1396:	e7fb      	b.n	1390 <_usb_d_dev_enable+0x3c>
    1398:	41005000 	.word	0x41005000
    139c:	e000e100 	.word	0xe000e100
    13a0:	0000028d 	.word	0x0000028d

000013a4 <_usb_d_dev_attach>:
    13a4:	4a02      	ldr	r2, [pc, #8]	; (13b0 <_usb_d_dev_attach+0xc>)
    13a6:	8913      	ldrh	r3, [r2, #8]
    13a8:	2101      	movs	r1, #1
    13aa:	438b      	bics	r3, r1
    13ac:	8113      	strh	r3, [r2, #8]
    13ae:	4770      	bx	lr
    13b0:	41005000 	.word	0x41005000

000013b4 <_usb_d_dev_set_address>:
    13b4:	2380      	movs	r3, #128	; 0x80
    13b6:	4318      	orrs	r0, r3
    13b8:	4b01      	ldr	r3, [pc, #4]	; (13c0 <_usb_d_dev_set_address+0xc>)
    13ba:	7298      	strb	r0, [r3, #10]
    13bc:	4770      	bx	lr
    13be:	46c0      	nop			; (mov r8, r8)
    13c0:	41005000 	.word	0x41005000

000013c4 <_usb_d_dev_ep_init>:
    13c4:	b5f0      	push	{r4, r5, r6, r7, lr}
    13c6:	240f      	movs	r4, #15
    13c8:	4004      	ands	r4, r0
    13ca:	b243      	sxtb	r3, r0
    13cc:	469c      	mov	ip, r3
    13ce:	2c00      	cmp	r4, #0
    13d0:	d054      	beq.n	147c <_usb_d_dev_ep_init+0xb8>
    13d2:	0025      	movs	r5, r4
    13d4:	2b00      	cmp	r3, #0
    13d6:	db07      	blt.n	13e8 <_usb_d_dev_ep_init+0x24>
    13d8:	2303      	movs	r3, #3
    13da:	4019      	ands	r1, r3
    13dc:	0027      	movs	r7, r4
    13de:	2c02      	cmp	r4, #2
    13e0:	d950      	bls.n	1484 <_usb_d_dev_ep_init+0xc0>
    13e2:	2012      	movs	r0, #18
    13e4:	4240      	negs	r0, r0
    13e6:	e025      	b.n	1434 <_usb_d_dev_ep_init+0x70>
    13e8:	1ca5      	adds	r5, r4, #2
    13ea:	e7f5      	b.n	13d8 <_usb_d_dev_ep_init+0x14>
    13ec:	4663      	mov	r3, ip
    13ee:	2b00      	cmp	r3, #0
    13f0:	db21      	blt.n	1436 <_usb_d_dev_ep_init+0x72>
    13f2:	007b      	lsls	r3, r7, #1
    13f4:	19db      	adds	r3, r3, r7
    13f6:	009b      	lsls	r3, r3, #2
    13f8:	4c3b      	ldr	r4, [pc, #236]	; (14e8 <_usb_d_dev_ep_init+0x124>)
    13fa:	591b      	ldr	r3, [r3, r4]
    13fc:	2b00      	cmp	r3, #0
    13fe:	d166      	bne.n	14ce <_usb_d_dev_ep_init+0x10a>
    1400:	007b      	lsls	r3, r7, #1
    1402:	19df      	adds	r7, r3, r7
    1404:	00bf      	lsls	r7, r7, #2
    1406:	4b38      	ldr	r3, [pc, #224]	; (14e8 <_usb_d_dev_ep_init+0x124>)
    1408:	58ff      	ldr	r7, [r7, r3]
    140a:	4b38      	ldr	r3, [pc, #224]	; (14ec <_usb_d_dev_ep_init+0x128>)
    140c:	00ae      	lsls	r6, r5, #2
    140e:	1974      	adds	r4, r6, r5
    1410:	00a4      	lsls	r4, r4, #2
    1412:	191c      	adds	r4, r3, r4
    1414:	3480      	adds	r4, #128	; 0x80
    1416:	6027      	str	r7, [r4, #0]
    1418:	3360      	adds	r3, #96	; 0x60
    141a:	1974      	adds	r4, r6, r5
    141c:	00a4      	lsls	r4, r4, #2
    141e:	191c      	adds	r4, r3, r4
    1420:	84a2      	strh	r2, [r4, #36]	; 0x24
    1422:	3427      	adds	r4, #39	; 0x27
    1424:	3101      	adds	r1, #1
    1426:	7021      	strb	r1, [r4, #0]
    1428:	1975      	adds	r5, r6, r5
    142a:	00ad      	lsls	r5, r5, #2
    142c:	195b      	adds	r3, r3, r5
    142e:	3326      	adds	r3, #38	; 0x26
    1430:	7018      	strb	r0, [r3, #0]
    1432:	2000      	movs	r0, #0
    1434:	bdf0      	pop	{r4, r5, r6, r7, pc}
    1436:	007b      	lsls	r3, r7, #1
    1438:	19db      	adds	r3, r3, r7
    143a:	009b      	lsls	r3, r3, #2
    143c:	4c2a      	ldr	r4, [pc, #168]	; (14e8 <_usb_d_dev_ep_init+0x124>)
    143e:	18e3      	adds	r3, r4, r3
    1440:	685b      	ldr	r3, [r3, #4]
    1442:	2b00      	cmp	r3, #0
    1444:	d106      	bne.n	1454 <_usb_d_dev_ep_init+0x90>
    1446:	007b      	lsls	r3, r7, #1
    1448:	19df      	adds	r7, r3, r7
    144a:	00bf      	lsls	r7, r7, #2
    144c:	4b26      	ldr	r3, [pc, #152]	; (14e8 <_usb_d_dev_ep_init+0x124>)
    144e:	19df      	adds	r7, r3, r7
    1450:	687f      	ldr	r7, [r7, #4]
    1452:	e7da      	b.n	140a <_usb_d_dev_ep_init+0x46>
    1454:	007b      	lsls	r3, r7, #1
    1456:	19db      	adds	r3, r3, r7
    1458:	009b      	lsls	r3, r3, #2
    145a:	4c23      	ldr	r4, [pc, #140]	; (14e8 <_usb_d_dev_ep_init+0x124>)
    145c:	18e3      	adds	r3, r4, r3
    145e:	895b      	ldrh	r3, [r3, #10]
    1460:	4293      	cmp	r3, r2
    1462:	daf0      	bge.n	1446 <_usb_d_dev_ep_init+0x82>
    1464:	2013      	movs	r0, #19
    1466:	4240      	negs	r0, r0
    1468:	e7e4      	b.n	1434 <_usb_d_dev_ep_init+0x70>
    146a:	2014      	movs	r0, #20
    146c:	4240      	negs	r0, r0
    146e:	e7e1      	b.n	1434 <_usb_d_dev_ep_init+0x70>
    1470:	2014      	movs	r0, #20
    1472:	4240      	negs	r0, r0
    1474:	e7de      	b.n	1434 <_usb_d_dev_ep_init+0x70>
    1476:	2013      	movs	r0, #19
    1478:	4240      	negs	r0, r0
    147a:	e7db      	b.n	1434 <_usb_d_dev_ep_init+0x70>
    147c:	2303      	movs	r3, #3
    147e:	4019      	ands	r1, r3
    1480:	2500      	movs	r5, #0
    1482:	2700      	movs	r7, #0
    1484:	00ab      	lsls	r3, r5, #2
    1486:	195b      	adds	r3, r3, r5
    1488:	009e      	lsls	r6, r3, #2
    148a:	4b18      	ldr	r3, [pc, #96]	; (14ec <_usb_d_dev_ep_init+0x128>)
    148c:	199b      	adds	r3, r3, r6
    148e:	3386      	adds	r3, #134	; 0x86
    1490:	781b      	ldrb	r3, [r3, #0]
    1492:	2bff      	cmp	r3, #255	; 0xff
    1494:	d1e9      	bne.n	146a <_usb_d_dev_ep_init+0xa6>
    1496:	2900      	cmp	r1, #0
    1498:	d1a8      	bne.n	13ec <_usb_d_dev_ep_init+0x28>
    149a:	2c00      	cmp	r4, #0
    149c:	d004      	beq.n	14a8 <_usb_d_dev_ep_init+0xe4>
    149e:	4663      	mov	r3, ip
    14a0:	2b00      	cmp	r3, #0
    14a2:	db01      	blt.n	14a8 <_usb_d_dev_ep_init+0xe4>
    14a4:	3402      	adds	r4, #2
    14a6:	b2e4      	uxtb	r4, r4
    14a8:	00a3      	lsls	r3, r4, #2
    14aa:	191b      	adds	r3, r3, r4
    14ac:	009b      	lsls	r3, r3, #2
    14ae:	4c0f      	ldr	r4, [pc, #60]	; (14ec <_usb_d_dev_ep_init+0x128>)
    14b0:	18e4      	adds	r4, r4, r3
    14b2:	3486      	adds	r4, #134	; 0x86
    14b4:	7823      	ldrb	r3, [r4, #0]
    14b6:	2bff      	cmp	r3, #255	; 0xff
    14b8:	d1da      	bne.n	1470 <_usb_d_dev_ep_init+0xac>
    14ba:	007b      	lsls	r3, r7, #1
    14bc:	19db      	adds	r3, r3, r7
    14be:	009b      	lsls	r3, r3, #2
    14c0:	4c09      	ldr	r4, [pc, #36]	; (14e8 <_usb_d_dev_ep_init+0x124>)
    14c2:	591b      	ldr	r3, [r3, r4]
    14c4:	2b00      	cmp	r3, #0
    14c6:	d0d6      	beq.n	1476 <_usb_d_dev_ep_init+0xb2>
    14c8:	4663      	mov	r3, ip
    14ca:	2b00      	cmp	r3, #0
    14cc:	dbb3      	blt.n	1436 <_usb_d_dev_ep_init+0x72>
    14ce:	007b      	lsls	r3, r7, #1
    14d0:	19db      	adds	r3, r3, r7
    14d2:	009b      	lsls	r3, r3, #2
    14d4:	4c04      	ldr	r4, [pc, #16]	; (14e8 <_usb_d_dev_ep_init+0x124>)
    14d6:	18e3      	adds	r3, r4, r3
    14d8:	891b      	ldrh	r3, [r3, #8]
    14da:	4293      	cmp	r3, r2
    14dc:	db00      	blt.n	14e0 <_usb_d_dev_ep_init+0x11c>
    14de:	e78f      	b.n	1400 <_usb_d_dev_ep_init+0x3c>
    14e0:	2013      	movs	r0, #19
    14e2:	4240      	negs	r0, r0
    14e4:	e7a6      	b.n	1434 <_usb_d_dev_ep_init+0x70>
    14e6:	46c0      	nop			; (mov r8, r8)
    14e8:	00003f28 	.word	0x00003f28
    14ec:	200002ec 	.word	0x200002ec

000014f0 <_usb_d_dev_ep_deinit>:
    14f0:	b5f8      	push	{r3, r4, r5, r6, r7, lr}
    14f2:	0005      	movs	r5, r0
    14f4:	240f      	movs	r4, #15
    14f6:	4004      	ands	r4, r0
    14f8:	b247      	sxtb	r7, r0
    14fa:	2c00      	cmp	r4, #0
    14fc:	d010      	beq.n	1520 <_usb_d_dev_ep_deinit+0x30>
    14fe:	0020      	movs	r0, r4
    1500:	2f00      	cmp	r7, #0
    1502:	db02      	blt.n	150a <_usb_d_dev_ep_deinit+0x1a>
    1504:	2c02      	cmp	r4, #2
    1506:	d902      	bls.n	150e <_usb_d_dev_ep_deinit+0x1e>
    1508:	bdf8      	pop	{r3, r4, r5, r6, r7, pc}
    150a:	1ca0      	adds	r0, r4, #2
    150c:	e7fa      	b.n	1504 <_usb_d_dev_ep_deinit+0x14>
    150e:	0006      	movs	r6, r0
    1510:	3001      	adds	r0, #1
    1512:	0083      	lsls	r3, r0, #2
    1514:	1818      	adds	r0, r3, r0
    1516:	0080      	lsls	r0, r0, #2
    1518:	4b25      	ldr	r3, [pc, #148]	; (15b0 <_usb_d_dev_ep_deinit+0xc0>)
    151a:	3360      	adds	r3, #96	; 0x60
    151c:	1818      	adds	r0, r3, r0
    151e:	e002      	b.n	1526 <_usb_d_dev_ep_deinit+0x36>
    1520:	4823      	ldr	r0, [pc, #140]	; (15b0 <_usb_d_dev_ep_deinit+0xc0>)
    1522:	3074      	adds	r0, #116	; 0x74
    1524:	2600      	movs	r6, #0
    1526:	00b3      	lsls	r3, r6, #2
    1528:	199b      	adds	r3, r3, r6
    152a:	009a      	lsls	r2, r3, #2
    152c:	4b20      	ldr	r3, [pc, #128]	; (15b0 <_usb_d_dev_ep_deinit+0xc0>)
    152e:	189b      	adds	r3, r3, r2
    1530:	3386      	adds	r3, #134	; 0x86
    1532:	781b      	ldrb	r3, [r3, #0]
    1534:	2bff      	cmp	r3, #255	; 0xff
    1536:	d0e7      	beq.n	1508 <_usb_d_dev_ep_deinit+0x18>
    1538:	0ff9      	lsrs	r1, r7, #31
    153a:	2203      	movs	r2, #3
    153c:	4b1d      	ldr	r3, [pc, #116]	; (15b4 <_usb_d_dev_ep_deinit+0xc4>)
    153e:	4798      	blx	r3
    1540:	00b3      	lsls	r3, r6, #2
    1542:	199b      	adds	r3, r3, r6
    1544:	009a      	lsls	r2, r3, #2
    1546:	4b1a      	ldr	r3, [pc, #104]	; (15b0 <_usb_d_dev_ep_deinit+0xc0>)
    1548:	189b      	adds	r3, r3, r2
    154a:	3380      	adds	r3, #128	; 0x80
    154c:	79da      	ldrb	r2, [r3, #7]
    154e:	2307      	movs	r3, #7
    1550:	4013      	ands	r3, r2
    1552:	2b01      	cmp	r3, #1
    1554:	d01b      	beq.n	158e <_usb_d_dev_ep_deinit+0x9e>
    1556:	2f00      	cmp	r7, #0
    1558:	db1f      	blt.n	159a <_usb_d_dev_ep_deinit+0xaa>
    155a:	016d      	lsls	r5, r5, #5
    155c:	4b16      	ldr	r3, [pc, #88]	; (15b8 <_usb_d_dev_ep_deinit+0xc8>)
    155e:	469c      	mov	ip, r3
    1560:	4465      	add	r5, ip
    1562:	2280      	movs	r2, #128	; 0x80
    1564:	0052      	lsls	r2, r2, #1
    1566:	5cab      	ldrb	r3, [r5, r2]
    1568:	2107      	movs	r1, #7
    156a:	438b      	bics	r3, r1
    156c:	54ab      	strb	r3, [r5, r2]
    156e:	4b10      	ldr	r3, [pc, #64]	; (15b0 <_usb_d_dev_ep_deinit+0xc0>)
    1570:	3360      	adds	r3, #96	; 0x60
    1572:	00b1      	lsls	r1, r6, #2
    1574:	198a      	adds	r2, r1, r6
    1576:	0092      	lsls	r2, r2, #2
    1578:	189a      	adds	r2, r3, r2
    157a:	3227      	adds	r2, #39	; 0x27
    157c:	2000      	movs	r0, #0
    157e:	7010      	strb	r0, [r2, #0]
    1580:	198e      	adds	r6, r1, r6
    1582:	00b6      	lsls	r6, r6, #2
    1584:	199b      	adds	r3, r3, r6
    1586:	3326      	adds	r3, #38	; 0x26
    1588:	22ff      	movs	r2, #255	; 0xff
    158a:	701a      	strb	r2, [r3, #0]
    158c:	e7bc      	b.n	1508 <_usb_d_dev_ep_deinit+0x18>
    158e:	3508      	adds	r5, #8
    1590:	016d      	lsls	r5, r5, #5
    1592:	2200      	movs	r2, #0
    1594:	4b08      	ldr	r3, [pc, #32]	; (15b8 <_usb_d_dev_ep_deinit+0xc8>)
    1596:	54ea      	strb	r2, [r5, r3]
    1598:	e7e9      	b.n	156e <_usb_d_dev_ep_deinit+0x7e>
    159a:	0164      	lsls	r4, r4, #5
    159c:	4b06      	ldr	r3, [pc, #24]	; (15b8 <_usb_d_dev_ep_deinit+0xc8>)
    159e:	469c      	mov	ip, r3
    15a0:	4464      	add	r4, ip
    15a2:	2280      	movs	r2, #128	; 0x80
    15a4:	0052      	lsls	r2, r2, #1
    15a6:	5ca3      	ldrb	r3, [r4, r2]
    15a8:	2170      	movs	r1, #112	; 0x70
    15aa:	438b      	bics	r3, r1
    15ac:	54a3      	strb	r3, [r4, r2]
    15ae:	e7de      	b.n	156e <_usb_d_dev_ep_deinit+0x7e>
    15b0:	200002ec 	.word	0x200002ec
    15b4:	00000ced 	.word	0x00000ced
    15b8:	41005000 	.word	0x41005000

000015bc <_usb_d_dev_ep_enable>:
    15bc:	b5f0      	push	{r4, r5, r6, r7, lr}
    15be:	46c6      	mov	lr, r8
    15c0:	b500      	push	{lr}
    15c2:	220f      	movs	r2, #15
    15c4:	4002      	ands	r2, r0
    15c6:	b240      	sxtb	r0, r0
    15c8:	2a00      	cmp	r2, #0
    15ca:	d100      	bne.n	15ce <_usb_d_dev_ep_enable+0x12>
    15cc:	e092      	b.n	16f4 <_usb_d_dev_ep_enable+0x138>
    15ce:	0013      	movs	r3, r2
    15d0:	2800      	cmp	r0, #0
    15d2:	db0b      	blt.n	15ec <_usb_d_dev_ep_enable+0x30>
    15d4:	0011      	movs	r1, r2
    15d6:	3208      	adds	r2, #8
    15d8:	0152      	lsls	r2, r2, #5
    15da:	4caa      	ldr	r4, [pc, #680]	; (1884 <_usb_d_dev_ep_enable+0x2c8>)
    15dc:	5d15      	ldrb	r5, [r2, r4]
    15de:	b2ed      	uxtb	r5, r5
    15e0:	2902      	cmp	r1, #2
    15e2:	d800      	bhi.n	15e6 <_usb_d_dev_ep_enable+0x2a>
    15e4:	e08d      	b.n	1702 <_usb_d_dev_ep_enable+0x146>
    15e6:	2012      	movs	r0, #18
    15e8:	4240      	negs	r0, r0
    15ea:	e0e5      	b.n	17b8 <_usb_d_dev_ep_enable+0x1fc>
    15ec:	1c93      	adds	r3, r2, #2
    15ee:	e7f1      	b.n	15d4 <_usb_d_dev_ep_enable+0x18>
    15f0:	3276      	adds	r2, #118	; 0x76
    15f2:	422a      	tst	r2, r5
    15f4:	d175      	bne.n	16e2 <_usb_d_dev_ep_enable+0x126>
    15f6:	4aa3      	ldr	r2, [pc, #652]	; (1884 <_usb_d_dev_ep_enable+0x2c8>)
    15f8:	4690      	mov	r8, r2
    15fa:	4444      	add	r4, r8
    15fc:	2011      	movs	r0, #17
    15fe:	2280      	movs	r2, #128	; 0x80
    1600:	0052      	lsls	r2, r2, #1
    1602:	54a0      	strb	r0, [r4, r2]
    1604:	009a      	lsls	r2, r3, #2
    1606:	18d2      	adds	r2, r2, r3
    1608:	0095      	lsls	r5, r2, #2
    160a:	4a9f      	ldr	r2, [pc, #636]	; (1888 <_usb_d_dev_ep_enable+0x2cc>)
    160c:	3260      	adds	r2, #96	; 0x60
    160e:	1952      	adds	r2, r2, r5
    1610:	8c92      	ldrh	r2, [r2, #36]	; 0x24
    1612:	0395      	lsls	r5, r2, #14
    1614:	489d      	ldr	r0, [pc, #628]	; (188c <_usb_d_dev_ep_enable+0x2d0>)
    1616:	4005      	ands	r5, r0
    1618:	2080      	movs	r0, #128	; 0x80
    161a:	0080      	lsls	r0, r0, #2
    161c:	4282      	cmp	r2, r0
    161e:	d900      	bls.n	1622 <_usb_d_dev_ep_enable+0x66>
    1620:	e0cd      	b.n	17be <_usb_d_dev_ep_enable+0x202>
    1622:	3801      	subs	r0, #1
    1624:	38ff      	subs	r0, #255	; 0xff
    1626:	4282      	cmp	r2, r0
    1628:	d900      	bls.n	162c <_usb_d_dev_ep_enable+0x70>
    162a:	e113      	b.n	1854 <_usb_d_dev_ep_enable+0x298>
    162c:	2a80      	cmp	r2, #128	; 0x80
    162e:	d900      	bls.n	1632 <_usb_d_dev_ep_enable+0x76>
    1630:	e100      	b.n	1834 <_usb_d_dev_ep_enable+0x278>
    1632:	2a40      	cmp	r2, #64	; 0x40
    1634:	d900      	bls.n	1638 <_usb_d_dev_ep_enable+0x7c>
    1636:	e115      	b.n	1864 <_usb_d_dev_ep_enable+0x2a8>
    1638:	2a20      	cmp	r2, #32
    163a:	d900      	bls.n	163e <_usb_d_dev_ep_enable+0x82>
    163c:	e102      	b.n	1844 <_usb_d_dev_ep_enable+0x288>
    163e:	2a10      	cmp	r2, #16
    1640:	d900      	bls.n	1644 <_usb_d_dev_ep_enable+0x88>
    1642:	e117      	b.n	1874 <_usb_d_dev_ep_enable+0x2b8>
    1644:	38f8      	subs	r0, #248	; 0xf8
    1646:	4290      	cmp	r0, r2
    1648:	4180      	sbcs	r0, r0
    164a:	4240      	negs	r0, r0
    164c:	0706      	lsls	r6, r0, #28
    164e:	4335      	orrs	r5, r6
    1650:	607d      	str	r5, [r7, #4]
    1652:	0495      	lsls	r5, r2, #18
    1654:	0cad      	lsrs	r5, r5, #18
    1656:	e0b9      	b.n	17cc <_usb_d_dev_ep_enable+0x210>
    1658:	2270      	movs	r2, #112	; 0x70
    165a:	422a      	tst	r2, r5
    165c:	d144      	bne.n	16e8 <_usb_d_dev_ep_enable+0x12c>
    165e:	488a      	ldr	r0, [pc, #552]	; (1888 <_usb_d_dev_ep_enable+0x2cc>)
    1660:	009e      	lsls	r6, r3, #2
    1662:	18f2      	adds	r2, r6, r3
    1664:	0092      	lsls	r2, r2, #2
    1666:	1882      	adds	r2, r0, r2
    1668:	3280      	adds	r2, #128	; 0x80
    166a:	79d2      	ldrb	r2, [r2, #7]
    166c:	0752      	lsls	r2, r2, #29
    166e:	0e52      	lsrs	r2, r2, #25
    1670:	4315      	orrs	r5, r2
    1672:	4a84      	ldr	r2, [pc, #528]	; (1884 <_usb_d_dev_ep_enable+0x2c8>)
    1674:	4694      	mov	ip, r2
    1676:	4464      	add	r4, ip
    1678:	2280      	movs	r2, #128	; 0x80
    167a:	0052      	lsls	r2, r2, #1
    167c:	54a5      	strb	r5, [r4, r2]
    167e:	3060      	adds	r0, #96	; 0x60
    1680:	18f6      	adds	r6, r6, r3
    1682:	00b6      	lsls	r6, r6, #2
    1684:	1980      	adds	r0, r0, r6
    1686:	8c80      	ldrh	r0, [r0, #36]	; 0x24
    1688:	0485      	lsls	r5, r0, #18
    168a:	0cad      	lsrs	r5, r5, #18
    168c:	3201      	adds	r2, #1
    168e:	32ff      	adds	r2, #255	; 0xff
    1690:	2307      	movs	r3, #7
    1692:	4290      	cmp	r0, r2
    1694:	d814      	bhi.n	16c0 <_usb_d_dev_ep_enable+0x104>
    1696:	3a01      	subs	r2, #1
    1698:	3aff      	subs	r2, #255	; 0xff
    169a:	3b01      	subs	r3, #1
    169c:	4290      	cmp	r0, r2
    169e:	d80f      	bhi.n	16c0 <_usb_d_dev_ep_enable+0x104>
    16a0:	3b01      	subs	r3, #1
    16a2:	2880      	cmp	r0, #128	; 0x80
    16a4:	d80c      	bhi.n	16c0 <_usb_d_dev_ep_enable+0x104>
    16a6:	3b01      	subs	r3, #1
    16a8:	2840      	cmp	r0, #64	; 0x40
    16aa:	d809      	bhi.n	16c0 <_usb_d_dev_ep_enable+0x104>
    16ac:	3b01      	subs	r3, #1
    16ae:	2820      	cmp	r0, #32
    16b0:	d806      	bhi.n	16c0 <_usb_d_dev_ep_enable+0x104>
    16b2:	3b01      	subs	r3, #1
    16b4:	2810      	cmp	r0, #16
    16b6:	d803      	bhi.n	16c0 <_usb_d_dev_ep_enable+0x104>
    16b8:	3af8      	subs	r2, #248	; 0xf8
    16ba:	4282      	cmp	r2, r0
    16bc:	4192      	sbcs	r2, r2
    16be:	4253      	negs	r3, r2
    16c0:	071b      	lsls	r3, r3, #28
    16c2:	432b      	orrs	r3, r5
    16c4:	617b      	str	r3, [r7, #20]
    16c6:	2280      	movs	r2, #128	; 0x80
    16c8:	2382      	movs	r3, #130	; 0x82
    16ca:	005b      	lsls	r3, r3, #1
    16cc:	54e2      	strb	r2, [r4, r3]
    16ce:	0149      	lsls	r1, r1, #5
    16d0:	4b6d      	ldr	r3, [pc, #436]	; (1888 <_usb_d_dev_ep_enable+0x2cc>)
    16d2:	1859      	adds	r1, r3, r1
    16d4:	2300      	movs	r3, #0
    16d6:	768b      	strb	r3, [r1, #26]
    16d8:	2000      	movs	r0, #0
    16da:	e06d      	b.n	17b8 <_usb_d_dev_ep_enable+0x1fc>
    16dc:	2012      	movs	r0, #18
    16de:	4240      	negs	r0, r0
    16e0:	e06a      	b.n	17b8 <_usb_d_dev_ep_enable+0x1fc>
    16e2:	2014      	movs	r0, #20
    16e4:	4240      	negs	r0, r0
    16e6:	e067      	b.n	17b8 <_usb_d_dev_ep_enable+0x1fc>
    16e8:	2014      	movs	r0, #20
    16ea:	4240      	negs	r0, r0
    16ec:	e064      	b.n	17b8 <_usb_d_dev_ep_enable+0x1fc>
    16ee:	2014      	movs	r0, #20
    16f0:	4240      	negs	r0, r0
    16f2:	e061      	b.n	17b8 <_usb_d_dev_ep_enable+0x1fc>
    16f4:	2380      	movs	r3, #128	; 0x80
    16f6:	005b      	lsls	r3, r3, #1
    16f8:	4a62      	ldr	r2, [pc, #392]	; (1884 <_usb_d_dev_ep_enable+0x2c8>)
    16fa:	5cd5      	ldrb	r5, [r2, r3]
    16fc:	b2ed      	uxtb	r5, r5
    16fe:	2100      	movs	r1, #0
    1700:	2300      	movs	r3, #0
    1702:	009a      	lsls	r2, r3, #2
    1704:	18d2      	adds	r2, r2, r3
    1706:	0094      	lsls	r4, r2, #2
    1708:	4a5f      	ldr	r2, [pc, #380]	; (1888 <_usb_d_dev_ep_enable+0x2cc>)
    170a:	1912      	adds	r2, r2, r4
    170c:	3286      	adds	r2, #134	; 0x86
    170e:	7812      	ldrb	r2, [r2, #0]
    1710:	4694      	mov	ip, r2
    1712:	2aff      	cmp	r2, #255	; 0xff
    1714:	d0e2      	beq.n	16dc <_usb_d_dev_ep_enable+0x120>
    1716:	014c      	lsls	r4, r1, #5
    1718:	4a5b      	ldr	r2, [pc, #364]	; (1888 <_usb_d_dev_ep_enable+0x2cc>)
    171a:	1917      	adds	r7, r2, r4
    171c:	009e      	lsls	r6, r3, #2
    171e:	18f6      	adds	r6, r6, r3
    1720:	00b6      	lsls	r6, r6, #2
    1722:	1992      	adds	r2, r2, r6
    1724:	3280      	adds	r2, #128	; 0x80
    1726:	79d6      	ldrb	r6, [r2, #7]
    1728:	2207      	movs	r2, #7
    172a:	4032      	ands	r2, r6
    172c:	2a01      	cmp	r2, #1
    172e:	d100      	bne.n	1732 <_usb_d_dev_ep_enable+0x176>
    1730:	e75e      	b.n	15f0 <_usb_d_dev_ep_enable+0x34>
    1732:	2800      	cmp	r0, #0
    1734:	db90      	blt.n	1658 <_usb_d_dev_ep_enable+0x9c>
    1736:	076a      	lsls	r2, r5, #29
    1738:	d1d9      	bne.n	16ee <_usb_d_dev_ep_enable+0x132>
    173a:	4853      	ldr	r0, [pc, #332]	; (1888 <_usb_d_dev_ep_enable+0x2cc>)
    173c:	009e      	lsls	r6, r3, #2
    173e:	18f2      	adds	r2, r6, r3
    1740:	0092      	lsls	r2, r2, #2
    1742:	1882      	adds	r2, r0, r2
    1744:	3280      	adds	r2, #128	; 0x80
    1746:	79d2      	ldrb	r2, [r2, #7]
    1748:	0752      	lsls	r2, r2, #29
    174a:	0f52      	lsrs	r2, r2, #29
    174c:	4315      	orrs	r5, r2
    174e:	4a4d      	ldr	r2, [pc, #308]	; (1884 <_usb_d_dev_ep_enable+0x2c8>)
    1750:	4694      	mov	ip, r2
    1752:	4464      	add	r4, ip
    1754:	2280      	movs	r2, #128	; 0x80
    1756:	0052      	lsls	r2, r2, #1
    1758:	54a5      	strb	r5, [r4, r2]
    175a:	3060      	adds	r0, #96	; 0x60
    175c:	18f6      	adds	r6, r6, r3
    175e:	00b6      	lsls	r6, r6, #2
    1760:	1980      	adds	r0, r0, r6
    1762:	8c85      	ldrh	r5, [r0, #36]	; 0x24
    1764:	03ab      	lsls	r3, r5, #14
    1766:	4849      	ldr	r0, [pc, #292]	; (188c <_usb_d_dev_ep_enable+0x2d0>)
    1768:	4018      	ands	r0, r3
    176a:	3201      	adds	r2, #1
    176c:	32ff      	adds	r2, #255	; 0xff
    176e:	2307      	movs	r3, #7
    1770:	4295      	cmp	r5, r2
    1772:	d814      	bhi.n	179e <_usb_d_dev_ep_enable+0x1e2>
    1774:	3a01      	subs	r2, #1
    1776:	3aff      	subs	r2, #255	; 0xff
    1778:	3b01      	subs	r3, #1
    177a:	4295      	cmp	r5, r2
    177c:	d80f      	bhi.n	179e <_usb_d_dev_ep_enable+0x1e2>
    177e:	3b01      	subs	r3, #1
    1780:	2d80      	cmp	r5, #128	; 0x80
    1782:	d80c      	bhi.n	179e <_usb_d_dev_ep_enable+0x1e2>
    1784:	3b01      	subs	r3, #1
    1786:	2d40      	cmp	r5, #64	; 0x40
    1788:	d809      	bhi.n	179e <_usb_d_dev_ep_enable+0x1e2>
    178a:	3b01      	subs	r3, #1
    178c:	2d20      	cmp	r5, #32
    178e:	d806      	bhi.n	179e <_usb_d_dev_ep_enable+0x1e2>
    1790:	3b01      	subs	r3, #1
    1792:	2d10      	cmp	r5, #16
    1794:	d803      	bhi.n	179e <_usb_d_dev_ep_enable+0x1e2>
    1796:	3af8      	subs	r2, #248	; 0xf8
    1798:	42aa      	cmp	r2, r5
    179a:	4192      	sbcs	r2, r2
    179c:	4253      	negs	r3, r2
    179e:	071b      	lsls	r3, r3, #28
    17a0:	4303      	orrs	r3, r0
    17a2:	607b      	str	r3, [r7, #4]
    17a4:	2240      	movs	r2, #64	; 0x40
    17a6:	2306      	movs	r3, #6
    17a8:	33ff      	adds	r3, #255	; 0xff
    17aa:	54e2      	strb	r2, [r4, r3]
    17ac:	0149      	lsls	r1, r1, #5
    17ae:	4b36      	ldr	r3, [pc, #216]	; (1888 <_usb_d_dev_ep_enable+0x2cc>)
    17b0:	1859      	adds	r1, r3, r1
    17b2:	2300      	movs	r3, #0
    17b4:	728b      	strb	r3, [r1, #10]
    17b6:	2000      	movs	r0, #0
    17b8:	bc04      	pop	{r2}
    17ba:	4690      	mov	r8, r2
    17bc:	bdf0      	pop	{r4, r5, r6, r7, pc}
    17be:	20e0      	movs	r0, #224	; 0xe0
    17c0:	05c0      	lsls	r0, r0, #23
    17c2:	4305      	orrs	r5, r0
    17c4:	607d      	str	r5, [r7, #4]
    17c6:	0495      	lsls	r5, r2, #18
    17c8:	0cad      	lsrs	r5, r5, #18
    17ca:	2007      	movs	r0, #7
    17cc:	0700      	lsls	r0, r0, #28
    17ce:	4328      	orrs	r0, r5
    17d0:	6178      	str	r0, [r7, #20]
    17d2:	2506      	movs	r5, #6
    17d4:	35ff      	adds	r5, #255	; 0xff
    17d6:	2640      	movs	r6, #64	; 0x40
    17d8:	5566      	strb	r6, [r4, r5]
    17da:	2782      	movs	r7, #130	; 0x82
    17dc:	007f      	lsls	r7, r7, #1
    17de:	2080      	movs	r0, #128	; 0x80
    17e0:	55e0      	strb	r0, [r4, r7]
    17e2:	4829      	ldr	r0, [pc, #164]	; (1888 <_usb_d_dev_ep_enable+0x2cc>)
    17e4:	0149      	lsls	r1, r1, #5
    17e6:	1841      	adds	r1, r0, r1
    17e8:	2400      	movs	r4, #0
    17ea:	728c      	strb	r4, [r1, #10]
    17ec:	768c      	strb	r4, [r1, #26]
    17ee:	340f      	adds	r4, #15
    17f0:	4661      	mov	r1, ip
    17f2:	400c      	ands	r4, r1
    17f4:	0099      	lsls	r1, r3, #2
    17f6:	18c9      	adds	r1, r1, r3
    17f8:	0089      	lsls	r1, r1, #2
    17fa:	1841      	adds	r1, r0, r1
    17fc:	3180      	adds	r1, #128	; 0x80
    17fe:	6809      	ldr	r1, [r1, #0]
    1800:	0163      	lsls	r3, r4, #5
    1802:	5019      	str	r1, [r3, r0]
    1804:	18c0      	adds	r0, r0, r3
    1806:	6841      	ldr	r1, [r0, #4]
    1808:	0492      	lsls	r2, r2, #18
    180a:	0914      	lsrs	r4, r2, #4
    180c:	4a20      	ldr	r2, [pc, #128]	; (1890 <_usb_d_dev_ep_enable+0x2d4>)
    180e:	400a      	ands	r2, r1
    1810:	4322      	orrs	r2, r4
    1812:	6042      	str	r2, [r0, #4]
    1814:	6842      	ldr	r2, [r0, #4]
    1816:	0b92      	lsrs	r2, r2, #14
    1818:	0392      	lsls	r2, r2, #14
    181a:	6042      	str	r2, [r0, #4]
    181c:	4a19      	ldr	r2, [pc, #100]	; (1884 <_usb_d_dev_ep_enable+0x2c8>)
    181e:	189a      	adds	r2, r3, r2
    1820:	21b0      	movs	r1, #176	; 0xb0
    1822:	55d1      	strb	r1, [r2, r7]
    1824:	5556      	strb	r6, [r2, r5]
    1826:	4a1b      	ldr	r2, [pc, #108]	; (1894 <_usb_d_dev_ep_enable+0x2d8>)
    1828:	4694      	mov	ip, r2
    182a:	4463      	add	r3, ip
    182c:	2210      	movs	r2, #16
    182e:	701a      	strb	r2, [r3, #0]
    1830:	2000      	movs	r0, #0
    1832:	e7c1      	b.n	17b8 <_usb_d_dev_ep_enable+0x1fc>
    1834:	20a0      	movs	r0, #160	; 0xa0
    1836:	05c0      	lsls	r0, r0, #23
    1838:	4305      	orrs	r5, r0
    183a:	607d      	str	r5, [r7, #4]
    183c:	0495      	lsls	r5, r2, #18
    183e:	0cad      	lsrs	r5, r5, #18
    1840:	2005      	movs	r0, #5
    1842:	e7c3      	b.n	17cc <_usb_d_dev_ep_enable+0x210>
    1844:	20c0      	movs	r0, #192	; 0xc0
    1846:	0580      	lsls	r0, r0, #22
    1848:	4305      	orrs	r5, r0
    184a:	607d      	str	r5, [r7, #4]
    184c:	0495      	lsls	r5, r2, #18
    184e:	0cad      	lsrs	r5, r5, #18
    1850:	2003      	movs	r0, #3
    1852:	e7bb      	b.n	17cc <_usb_d_dev_ep_enable+0x210>
    1854:	20c0      	movs	r0, #192	; 0xc0
    1856:	05c0      	lsls	r0, r0, #23
    1858:	4305      	orrs	r5, r0
    185a:	607d      	str	r5, [r7, #4]
    185c:	0495      	lsls	r5, r2, #18
    185e:	0cad      	lsrs	r5, r5, #18
    1860:	2006      	movs	r0, #6
    1862:	e7b3      	b.n	17cc <_usb_d_dev_ep_enable+0x210>
    1864:	2080      	movs	r0, #128	; 0x80
    1866:	05c0      	lsls	r0, r0, #23
    1868:	4305      	orrs	r5, r0
    186a:	607d      	str	r5, [r7, #4]
    186c:	0495      	lsls	r5, r2, #18
    186e:	0cad      	lsrs	r5, r5, #18
    1870:	2004      	movs	r0, #4
    1872:	e7ab      	b.n	17cc <_usb_d_dev_ep_enable+0x210>
    1874:	2080      	movs	r0, #128	; 0x80
    1876:	0580      	lsls	r0, r0, #22
    1878:	4305      	orrs	r5, r0
    187a:	607d      	str	r5, [r7, #4]
    187c:	0495      	lsls	r5, r2, #18
    187e:	0cad      	lsrs	r5, r5, #18
    1880:	2002      	movs	r0, #2
    1882:	e7a3      	b.n	17cc <_usb_d_dev_ep_enable+0x210>
    1884:	41005000 	.word	0x41005000
    1888:	200002ec 	.word	0x200002ec
    188c:	0fffc000 	.word	0x0fffc000
    1890:	f0003fff 	.word	0xf0003fff
    1894:	41005109 	.word	0x41005109

00001898 <_usb_d_dev_ep_stall>:
    1898:	b5f0      	push	{r4, r5, r6, r7, lr}
    189a:	230f      	movs	r3, #15
    189c:	4003      	ands	r3, r0
    189e:	b240      	sxtb	r0, r0
    18a0:	0fc4      	lsrs	r4, r0, #31
    18a2:	2b00      	cmp	r3, #0
    18a4:	d009      	beq.n	18ba <_usb_d_dev_ep_stall+0x22>
    18a6:	001a      	movs	r2, r3
    18a8:	2800      	cmp	r0, #0
    18aa:	db04      	blt.n	18b6 <_usb_d_dev_ep_stall+0x1e>
    18ac:	2b02      	cmp	r3, #2
    18ae:	d905      	bls.n	18bc <_usb_d_dev_ep_stall+0x24>
    18b0:	2012      	movs	r0, #18
    18b2:	4240      	negs	r0, r0
    18b4:	e019      	b.n	18ea <_usb_d_dev_ep_stall+0x52>
    18b6:	1c9a      	adds	r2, r3, #2
    18b8:	e7f8      	b.n	18ac <_usb_d_dev_ep_stall+0x14>
    18ba:	2200      	movs	r2, #0
    18bc:	2901      	cmp	r1, #1
    18be:	d015      	beq.n	18ec <_usb_d_dev_ep_stall+0x54>
    18c0:	2900      	cmp	r1, #0
    18c2:	d036      	beq.n	1932 <_usb_d_dev_ep_stall+0x9a>
    18c4:	0093      	lsls	r3, r2, #2
    18c6:	189b      	adds	r3, r3, r2
    18c8:	009b      	lsls	r3, r3, #2
    18ca:	4a47      	ldr	r2, [pc, #284]	; (19e8 <_usb_d_dev_ep_stall+0x150>)
    18cc:	18d2      	adds	r2, r2, r3
    18ce:	3286      	adds	r2, #134	; 0x86
    18d0:	7812      	ldrb	r2, [r2, #0]
    18d2:	230f      	movs	r3, #15
    18d4:	4013      	ands	r3, r2
    18d6:	015b      	lsls	r3, r3, #5
    18d8:	4a44      	ldr	r2, [pc, #272]	; (19ec <_usb_d_dev_ep_stall+0x154>)
    18da:	4694      	mov	ip, r2
    18dc:	4463      	add	r3, ip
    18de:	7998      	ldrb	r0, [r3, #6]
    18e0:	2310      	movs	r3, #16
    18e2:	40a3      	lsls	r3, r4
    18e4:	4018      	ands	r0, r3
    18e6:	1e43      	subs	r3, r0, #1
    18e8:	4198      	sbcs	r0, r3
    18ea:	bdf0      	pop	{r4, r5, r6, r7, pc}
    18ec:	2510      	movs	r5, #16
    18ee:	40a5      	lsls	r5, r4
    18f0:	b2ed      	uxtb	r5, r5
    18f2:	493d      	ldr	r1, [pc, #244]	; (19e8 <_usb_d_dev_ep_stall+0x150>)
    18f4:	0090      	lsls	r0, r2, #2
    18f6:	1883      	adds	r3, r0, r2
    18f8:	009b      	lsls	r3, r3, #2
    18fa:	18cb      	adds	r3, r1, r3
    18fc:	3386      	adds	r3, #134	; 0x86
    18fe:	781e      	ldrb	r6, [r3, #0]
    1900:	230f      	movs	r3, #15
    1902:	4033      	ands	r3, r6
    1904:	015e      	lsls	r6, r3, #5
    1906:	4f39      	ldr	r7, [pc, #228]	; (19ec <_usb_d_dev_ep_stall+0x154>)
    1908:	46bc      	mov	ip, r7
    190a:	4466      	add	r6, ip
    190c:	7175      	strb	r5, [r6, #5]
    190e:	2520      	movs	r5, #32
    1910:	40a5      	lsls	r5, r4
    1912:	b2ec      	uxtb	r4, r5
    1914:	015b      	lsls	r3, r3, #5
    1916:	4d36      	ldr	r5, [pc, #216]	; (19f0 <_usb_d_dev_ep_stall+0x158>)
    1918:	46ac      	mov	ip, r5
    191a:	4463      	add	r3, ip
    191c:	701c      	strb	r4, [r3, #0]
    191e:	1882      	adds	r2, r0, r2
    1920:	0092      	lsls	r2, r2, #2
    1922:	188a      	adds	r2, r1, r2
    1924:	3280      	adds	r2, #128	; 0x80
    1926:	79d3      	ldrb	r3, [r2, #7]
    1928:	2108      	movs	r1, #8
    192a:	430b      	orrs	r3, r1
    192c:	71d3      	strb	r3, [r2, #7]
    192e:	2000      	movs	r0, #0
    1930:	e7db      	b.n	18ea <_usb_d_dev_ep_stall+0x52>
    1932:	0093      	lsls	r3, r2, #2
    1934:	189b      	adds	r3, r3, r2
    1936:	0099      	lsls	r1, r3, #2
    1938:	4b2b      	ldr	r3, [pc, #172]	; (19e8 <_usb_d_dev_ep_stall+0x150>)
    193a:	185b      	adds	r3, r3, r1
    193c:	3386      	adds	r3, #134	; 0x86
    193e:	781b      	ldrb	r3, [r3, #0]
    1940:	210f      	movs	r1, #15
    1942:	400b      	ands	r3, r1
    1944:	015d      	lsls	r5, r3, #5
    1946:	492b      	ldr	r1, [pc, #172]	; (19f4 <_usb_d_dev_ep_stall+0x15c>)
    1948:	468c      	mov	ip, r1
    194a:	4465      	add	r5, ip
    194c:	2183      	movs	r1, #131	; 0x83
    194e:	0049      	lsls	r1, r1, #1
    1950:	5c6e      	ldrb	r6, [r5, r1]
    1952:	39f6      	subs	r1, #246	; 0xf6
    1954:	40a1      	lsls	r1, r4
    1956:	2000      	movs	r0, #0
    1958:	420e      	tst	r6, r1
    195a:	d0c6      	beq.n	18ea <_usb_d_dev_ep_stall+0x52>
    195c:	b2c9      	uxtb	r1, r1
    195e:	3005      	adds	r0, #5
    1960:	30ff      	adds	r0, #255	; 0xff
    1962:	5429      	strb	r1, [r5, r0]
    1964:	2120      	movs	r1, #32
    1966:	40a1      	lsls	r1, r4
    1968:	b2c8      	uxtb	r0, r1
    196a:	015b      	lsls	r3, r3, #5
    196c:	4e22      	ldr	r6, [pc, #136]	; (19f8 <_usb_d_dev_ep_stall+0x160>)
    196e:	46b4      	mov	ip, r6
    1970:	4463      	add	r3, ip
    1972:	7018      	strb	r0, [r3, #0]
    1974:	2308      	movs	r3, #8
    1976:	33ff      	adds	r3, #255	; 0xff
    1978:	5ceb      	ldrb	r3, [r5, r3]
    197a:	420b      	tst	r3, r1
    197c:	d009      	beq.n	1992 <_usb_d_dev_ep_stall+0xfa>
    197e:	2308      	movs	r3, #8
    1980:	33ff      	adds	r3, #255	; 0xff
    1982:	54e8      	strb	r0, [r5, r3]
    1984:	3b07      	subs	r3, #7
    1986:	3bff      	subs	r3, #255	; 0xff
    1988:	40a3      	lsls	r3, r4
    198a:	b2db      	uxtb	r3, r3
    198c:	2182      	movs	r1, #130	; 0x82
    198e:	0049      	lsls	r1, r1, #1
    1990:	546b      	strb	r3, [r5, r1]
    1992:	0093      	lsls	r3, r2, #2
    1994:	189b      	adds	r3, r3, r2
    1996:	0099      	lsls	r1, r3, #2
    1998:	4b13      	ldr	r3, [pc, #76]	; (19e8 <_usb_d_dev_ep_stall+0x150>)
    199a:	185b      	adds	r3, r3, r1
    199c:	3380      	adds	r3, #128	; 0x80
    199e:	79d9      	ldrb	r1, [r3, #7]
    19a0:	2307      	movs	r3, #7
    19a2:	400b      	ands	r3, r1
    19a4:	2b01      	cmp	r3, #1
    19a6:	d00b      	beq.n	19c0 <_usb_d_dev_ep_stall+0x128>
    19a8:	0093      	lsls	r3, r2, #2
    19aa:	189a      	adds	r2, r3, r2
    19ac:	0092      	lsls	r2, r2, #2
    19ae:	4b0e      	ldr	r3, [pc, #56]	; (19e8 <_usb_d_dev_ep_stall+0x150>)
    19b0:	189b      	adds	r3, r3, r2
    19b2:	3380      	adds	r3, #128	; 0x80
    19b4:	79da      	ldrb	r2, [r3, #7]
    19b6:	2108      	movs	r1, #8
    19b8:	438a      	bics	r2, r1
    19ba:	71da      	strb	r2, [r3, #7]
    19bc:	2000      	movs	r0, #0
    19be:	e794      	b.n	18ea <_usb_d_dev_ep_stall+0x52>
    19c0:	3306      	adds	r3, #6
    19c2:	33ff      	adds	r3, #255	; 0xff
    19c4:	5ce9      	ldrb	r1, [r5, r3]
    19c6:	3bd6      	subs	r3, #214	; 0xd6
    19c8:	2000      	movs	r0, #0
    19ca:	4219      	tst	r1, r3
    19cc:	d000      	beq.n	19d0 <_usb_d_dev_ep_stall+0x138>
    19ce:	e78c      	b.n	18ea <_usb_d_dev_ep_stall+0x52>
    19d0:	0093      	lsls	r3, r2, #2
    19d2:	189a      	adds	r2, r3, r2
    19d4:	0092      	lsls	r2, r2, #2
    19d6:	4b04      	ldr	r3, [pc, #16]	; (19e8 <_usb_d_dev_ep_stall+0x150>)
    19d8:	189b      	adds	r3, r3, r2
    19da:	3380      	adds	r3, #128	; 0x80
    19dc:	79da      	ldrb	r2, [r3, #7]
    19de:	2108      	movs	r1, #8
    19e0:	438a      	bics	r2, r1
    19e2:	71da      	strb	r2, [r3, #7]
    19e4:	e781      	b.n	18ea <_usb_d_dev_ep_stall+0x52>
    19e6:	46c0      	nop			; (mov r8, r8)
    19e8:	200002ec 	.word	0x200002ec
    19ec:	41005100 	.word	0x41005100
    19f0:	41005109 	.word	0x41005109
    19f4:	41005000 	.word	0x41005000
    19f8:	41005108 	.word	0x41005108

000019fc <_usb_d_dev_ep_read_req>:
    19fc:	b570      	push	{r4, r5, r6, lr}
    19fe:	000d      	movs	r5, r1
    1a00:	230f      	movs	r3, #15
    1a02:	4018      	ands	r0, r3
    1a04:	0144      	lsls	r4, r0, #5
    1a06:	4b16      	ldr	r3, [pc, #88]	; (1a60 <_usb_d_dev_ep_read_req+0x64>)
    1a08:	191b      	adds	r3, r3, r4
    1a0a:	6819      	ldr	r1, [r3, #0]
    1a0c:	685b      	ldr	r3, [r3, #4]
    1a0e:	049b      	lsls	r3, r3, #18
    1a10:	0c9e      	lsrs	r6, r3, #18
    1a12:	2802      	cmp	r0, #2
    1a14:	d81a      	bhi.n	1a4c <_usb_d_dev_ep_read_req+0x50>
    1a16:	2d00      	cmp	r5, #0
    1a18:	d01b      	beq.n	1a52 <_usb_d_dev_ep_read_req+0x56>
    1a1a:	4b12      	ldr	r3, [pc, #72]	; (1a64 <_usb_d_dev_ep_read_req+0x68>)
    1a1c:	469c      	mov	ip, r3
    1a1e:	4464      	add	r4, ip
    1a20:	2380      	movs	r3, #128	; 0x80
    1a22:	005b      	lsls	r3, r3, #1
    1a24:	5ce3      	ldrb	r3, [r4, r3]
    1a26:	2b11      	cmp	r3, #17
    1a28:	d116      	bne.n	1a58 <_usb_d_dev_ep_read_req+0x5c>
    1a2a:	2308      	movs	r3, #8
    1a2c:	33ff      	adds	r3, #255	; 0xff
    1a2e:	5ce3      	ldrb	r3, [r4, r3]
    1a30:	2000      	movs	r0, #0
    1a32:	06db      	lsls	r3, r3, #27
    1a34:	d400      	bmi.n	1a38 <_usb_d_dev_ep_read_req+0x3c>
    1a36:	bd70      	pop	{r4, r5, r6, pc}
    1a38:	2208      	movs	r2, #8
    1a3a:	0028      	movs	r0, r5
    1a3c:	4b0a      	ldr	r3, [pc, #40]	; (1a68 <_usb_d_dev_ep_read_req+0x6c>)
    1a3e:	4798      	blx	r3
    1a40:	2210      	movs	r2, #16
    1a42:	2308      	movs	r3, #8
    1a44:	33ff      	adds	r3, #255	; 0xff
    1a46:	54e2      	strb	r2, [r4, r3]
    1a48:	0030      	movs	r0, r6
    1a4a:	e7f4      	b.n	1a36 <_usb_d_dev_ep_read_req+0x3a>
    1a4c:	2012      	movs	r0, #18
    1a4e:	4240      	negs	r0, r0
    1a50:	e7f1      	b.n	1a36 <_usb_d_dev_ep_read_req+0x3a>
    1a52:	2012      	movs	r0, #18
    1a54:	4240      	negs	r0, r0
    1a56:	e7ee      	b.n	1a36 <_usb_d_dev_ep_read_req+0x3a>
    1a58:	2013      	movs	r0, #19
    1a5a:	4240      	negs	r0, r0
    1a5c:	e7eb      	b.n	1a36 <_usb_d_dev_ep_read_req+0x3a>
    1a5e:	46c0      	nop			; (mov r8, r8)
    1a60:	200002ec 	.word	0x200002ec
    1a64:	41005000 	.word	0x41005000
    1a68:	000034c1 	.word	0x000034c1

00001a6c <_usb_d_dev_ep_trans>:
    1a6c:	b5f0      	push	{r4, r5, r6, r7, lr}
    1a6e:	46de      	mov	lr, fp
    1a70:	4657      	mov	r7, sl
    1a72:	464e      	mov	r6, r9
    1a74:	4645      	mov	r5, r8
    1a76:	b5e0      	push	{r5, r6, r7, lr}
    1a78:	b085      	sub	sp, #20
    1a7a:	4680      	mov	r8, r0
    1a7c:	7a06      	ldrb	r6, [r0, #8]
    1a7e:	230f      	movs	r3, #15
    1a80:	4033      	ands	r3, r6
    1a82:	b276      	sxtb	r6, r6
    1a84:	2b00      	cmp	r3, #0
    1a86:	d100      	bne.n	1a8a <_usb_d_dev_ep_trans+0x1e>
    1a88:	e0d3      	b.n	1c32 <_usb_d_dev_ep_trans+0x1c6>
    1a8a:	0018      	movs	r0, r3
    1a8c:	2e00      	cmp	r6, #0
    1a8e:	db39      	blt.n	1b04 <_usb_d_dev_ep_trans+0x98>
    1a90:	0004      	movs	r4, r0
    1a92:	4a73      	ldr	r2, [pc, #460]	; (1c60 <_usb_d_dev_ep_trans+0x1f4>)
    1a94:	3260      	adds	r2, #96	; 0x60
    1a96:	1c41      	adds	r1, r0, #1
    1a98:	008d      	lsls	r5, r1, #2
    1a9a:	186d      	adds	r5, r5, r1
    1a9c:	00ad      	lsls	r5, r5, #2
    1a9e:	1955      	adds	r5, r2, r5
    1aa0:	0081      	lsls	r1, r0, #2
    1aa2:	1809      	adds	r1, r1, r0
    1aa4:	0089      	lsls	r1, r1, #2
    1aa6:	1852      	adds	r2, r2, r1
    1aa8:	8c91      	ldrh	r1, [r2, #36]	; 0x24
    1aaa:	4a6e      	ldr	r2, [pc, #440]	; (1c64 <_usb_d_dev_ep_trans+0x1f8>)
    1aac:	4291      	cmp	r1, r2
    1aae:	d02b      	beq.n	1b08 <_usb_d_dev_ep_trans+0x9c>
    1ab0:	1e4f      	subs	r7, r1, #1
    1ab2:	b2bf      	uxth	r7, r7
    1ab4:	4642      	mov	r2, r8
    1ab6:	6852      	ldr	r2, [r2, #4]
    1ab8:	4017      	ands	r7, r2
    1aba:	2b02      	cmp	r3, #2
    1abc:	d900      	bls.n	1ac0 <_usb_d_dev_ep_trans+0x54>
    1abe:	e0a4      	b.n	1c0a <_usb_d_dev_ep_trans+0x19e>
    1ac0:	4643      	mov	r3, r8
    1ac2:	681b      	ldr	r3, [r3, #0]
    1ac4:	4868      	ldr	r0, [pc, #416]	; (1c68 <_usb_d_dev_ep_trans+0x1fc>)
    1ac6:	4283      	cmp	r3, r0
    1ac8:	d920      	bls.n	1b0c <_usb_d_dev_ep_trans+0xa0>
    1aca:	1898      	adds	r0, r3, r2
    1acc:	9001      	str	r0, [sp, #4]
    1ace:	4867      	ldr	r0, [pc, #412]	; (1c6c <_usb_d_dev_ep_trans+0x200>)
    1ad0:	4684      	mov	ip, r0
    1ad2:	9801      	ldr	r0, [sp, #4]
    1ad4:	4560      	cmp	r0, ip
    1ad6:	d819      	bhi.n	1b0c <_usb_d_dev_ep_trans+0xa0>
    1ad8:	079b      	lsls	r3, r3, #30
    1ada:	d117      	bne.n	1b0c <_usb_d_dev_ep_trans+0xa0>
    1adc:	2e00      	cmp	r6, #0
    1ade:	db32      	blt.n	1b46 <_usb_d_dev_ep_trans+0xda>
    1ae0:	4291      	cmp	r1, r2
    1ae2:	d900      	bls.n	1ae6 <_usb_d_dev_ep_trans+0x7a>
    1ae4:	e0af      	b.n	1c46 <_usb_d_dev_ep_trans+0x1da>
    1ae6:	2f00      	cmp	r7, #0
    1ae8:	d030      	beq.n	1b4c <_usb_d_dev_ep_trans+0xe0>
    1aea:	00a3      	lsls	r3, r4, #2
    1aec:	191b      	adds	r3, r3, r4
    1aee:	009a      	lsls	r2, r3, #2
    1af0:	4b5b      	ldr	r3, [pc, #364]	; (1c60 <_usb_d_dev_ep_trans+0x1f4>)
    1af2:	189b      	adds	r3, r3, r2
    1af4:	3380      	adds	r3, #128	; 0x80
    1af6:	681b      	ldr	r3, [r3, #0]
    1af8:	2b00      	cmp	r3, #0
    1afa:	d100      	bne.n	1afe <_usb_d_dev_ep_trans+0x92>
    1afc:	e08b      	b.n	1c16 <_usb_d_dev_ep_trans+0x1aa>
    1afe:	2300      	movs	r3, #0
    1b00:	4699      	mov	r9, r3
    1b02:	e00f      	b.n	1b24 <_usb_d_dev_ep_trans+0xb8>
    1b04:	1c98      	adds	r0, r3, #2
    1b06:	e7c3      	b.n	1a90 <_usb_d_dev_ep_trans+0x24>
    1b08:	000f      	movs	r7, r1
    1b0a:	e7d3      	b.n	1ab4 <_usb_d_dev_ep_trans+0x48>
    1b0c:	00a3      	lsls	r3, r4, #2
    1b0e:	191b      	adds	r3, r3, r4
    1b10:	009a      	lsls	r2, r3, #2
    1b12:	4b53      	ldr	r3, [pc, #332]	; (1c60 <_usb_d_dev_ep_trans+0x1f4>)
    1b14:	189b      	adds	r3, r3, r2
    1b16:	3380      	adds	r3, #128	; 0x80
    1b18:	681b      	ldr	r3, [r3, #0]
    1b1a:	2b00      	cmp	r3, #0
    1b1c:	d100      	bne.n	1b20 <_usb_d_dev_ep_trans+0xb4>
    1b1e:	e077      	b.n	1c10 <_usb_d_dev_ep_trans+0x1a4>
    1b20:	2301      	movs	r3, #1
    1b22:	4699      	mov	r9, r3
    1b24:	00a3      	lsls	r3, r4, #2
    1b26:	191b      	adds	r3, r3, r4
    1b28:	009a      	lsls	r2, r3, #2
    1b2a:	4b4d      	ldr	r3, [pc, #308]	; (1c60 <_usb_d_dev_ep_trans+0x1f4>)
    1b2c:	189b      	adds	r3, r3, r2
    1b2e:	3380      	adds	r3, #128	; 0x80
    1b30:	79db      	ldrb	r3, [r3, #7]
    1b32:	2002      	movs	r0, #2
    1b34:	071b      	lsls	r3, r3, #28
    1b36:	d50c      	bpl.n	1b52 <_usb_d_dev_ep_trans+0xe6>
    1b38:	b005      	add	sp, #20
    1b3a:	bc3c      	pop	{r2, r3, r4, r5}
    1b3c:	4690      	mov	r8, r2
    1b3e:	4699      	mov	r9, r3
    1b40:	46a2      	mov	sl, r4
    1b42:	46ab      	mov	fp, r5
    1b44:	bdf0      	pop	{r4, r5, r6, r7, pc}
    1b46:	2300      	movs	r3, #0
    1b48:	4699      	mov	r9, r3
    1b4a:	e7eb      	b.n	1b24 <_usb_d_dev_ep_trans+0xb8>
    1b4c:	2300      	movs	r3, #0
    1b4e:	4699      	mov	r9, r3
    1b50:	e7e8      	b.n	1b24 <_usb_d_dev_ep_trans+0xb8>
    1b52:	a803      	add	r0, sp, #12
    1b54:	4b46      	ldr	r3, [pc, #280]	; (1c70 <_usb_d_dev_ep_trans+0x204>)
    1b56:	4798      	blx	r3
    1b58:	00a3      	lsls	r3, r4, #2
    1b5a:	191b      	adds	r3, r3, r4
    1b5c:	009a      	lsls	r2, r3, #2
    1b5e:	4b40      	ldr	r3, [pc, #256]	; (1c60 <_usb_d_dev_ep_trans+0x1f4>)
    1b60:	189b      	adds	r3, r3, r2
    1b62:	3380      	adds	r3, #128	; 0x80
    1b64:	79db      	ldrb	r3, [r3, #7]
    1b66:	065b      	lsls	r3, r3, #25
    1b68:	d444      	bmi.n	1bf4 <_usb_d_dev_ep_trans+0x188>
    1b6a:	00a3      	lsls	r3, r4, #2
    1b6c:	191b      	adds	r3, r3, r4
    1b6e:	009b      	lsls	r3, r3, #2
    1b70:	4a3b      	ldr	r2, [pc, #236]	; (1c60 <_usb_d_dev_ep_trans+0x1f4>)
    1b72:	4693      	mov	fp, r2
    1b74:	449b      	add	fp, r3
    1b76:	2380      	movs	r3, #128	; 0x80
    1b78:	445b      	add	r3, fp
    1b7a:	469a      	mov	sl, r3
    1b7c:	79db      	ldrb	r3, [r3, #7]
    1b7e:	2240      	movs	r2, #64	; 0x40
    1b80:	4313      	orrs	r3, r2
    1b82:	4652      	mov	r2, sl
    1b84:	71d3      	strb	r3, [r2, #7]
    1b86:	a803      	add	r0, sp, #12
    1b88:	4b3a      	ldr	r3, [pc, #232]	; (1c74 <_usb_d_dev_ep_trans+0x208>)
    1b8a:	4798      	blx	r3
    1b8c:	465b      	mov	r3, fp
    1b8e:	4642      	mov	r2, r8
    1b90:	6812      	ldr	r2, [r2, #0]
    1b92:	675a      	str	r2, [r3, #116]	; 0x74
    1b94:	4642      	mov	r2, r8
    1b96:	6852      	ldr	r2, [r2, #4]
    1b98:	679a      	str	r2, [r3, #120]	; 0x78
    1b9a:	2300      	movs	r3, #0
    1b9c:	465a      	mov	r2, fp
    1b9e:	67d3      	str	r3, [r2, #124]	; 0x7c
    1ba0:	0ff2      	lsrs	r2, r6, #31
    1ba2:	01d2      	lsls	r2, r2, #7
    1ba4:	4653      	mov	r3, sl
    1ba6:	79d9      	ldrb	r1, [r3, #7]
    1ba8:	237f      	movs	r3, #127	; 0x7f
    1baa:	400b      	ands	r3, r1
    1bac:	4649      	mov	r1, r9
    1bae:	0149      	lsls	r1, r1, #5
    1bb0:	4313      	orrs	r3, r2
    1bb2:	2220      	movs	r2, #32
    1bb4:	4393      	bics	r3, r2
    1bb6:	430b      	orrs	r3, r1
    1bb8:	4652      	mov	r2, sl
    1bba:	71d3      	strb	r3, [r2, #7]
    1bbc:	4643      	mov	r3, r8
    1bbe:	7a5b      	ldrb	r3, [r3, #9]
    1bc0:	2200      	movs	r2, #0
    1bc2:	2b00      	cmp	r3, #0
    1bc4:	d002      	beq.n	1bcc <_usb_d_dev_ep_trans+0x160>
    1bc6:	427a      	negs	r2, r7
    1bc8:	417a      	adcs	r2, r7
    1bca:	b2d2      	uxtb	r2, r2
    1bcc:	00a3      	lsls	r3, r4, #2
    1bce:	191c      	adds	r4, r3, r4
    1bd0:	00a4      	lsls	r4, r4, #2
    1bd2:	4b23      	ldr	r3, [pc, #140]	; (1c60 <_usb_d_dev_ep_trans+0x1f4>)
    1bd4:	191b      	adds	r3, r3, r4
    1bd6:	3380      	adds	r3, #128	; 0x80
    1bd8:	0112      	lsls	r2, r2, #4
    1bda:	79df      	ldrb	r7, [r3, #7]
    1bdc:	2110      	movs	r1, #16
    1bde:	438f      	bics	r7, r1
    1be0:	4317      	orrs	r7, r2
    1be2:	71df      	strb	r7, [r3, #7]
    1be4:	2e00      	cmp	r6, #0
    1be6:	db0a      	blt.n	1bfe <_usb_d_dev_ep_trans+0x192>
    1be8:	2100      	movs	r1, #0
    1bea:	0028      	movs	r0, r5
    1bec:	4b22      	ldr	r3, [pc, #136]	; (1c78 <_usb_d_dev_ep_trans+0x20c>)
    1bee:	4798      	blx	r3
    1bf0:	2000      	movs	r0, #0
    1bf2:	e7a1      	b.n	1b38 <_usb_d_dev_ep_trans+0xcc>
    1bf4:	a803      	add	r0, sp, #12
    1bf6:	4b1f      	ldr	r3, [pc, #124]	; (1c74 <_usb_d_dev_ep_trans+0x208>)
    1bf8:	4798      	blx	r3
    1bfa:	2001      	movs	r0, #1
    1bfc:	e79c      	b.n	1b38 <_usb_d_dev_ep_trans+0xcc>
    1bfe:	2100      	movs	r1, #0
    1c00:	0028      	movs	r0, r5
    1c02:	4b1e      	ldr	r3, [pc, #120]	; (1c7c <_usb_d_dev_ep_trans+0x210>)
    1c04:	4798      	blx	r3
    1c06:	2000      	movs	r0, #0
    1c08:	e796      	b.n	1b38 <_usb_d_dev_ep_trans+0xcc>
    1c0a:	2012      	movs	r0, #18
    1c0c:	4240      	negs	r0, r0
    1c0e:	e793      	b.n	1b38 <_usb_d_dev_ep_trans+0xcc>
    1c10:	2013      	movs	r0, #19
    1c12:	4240      	negs	r0, r0
    1c14:	e790      	b.n	1b38 <_usb_d_dev_ep_trans+0xcc>
    1c16:	2012      	movs	r0, #18
    1c18:	4240      	negs	r0, r0
    1c1a:	e78d      	b.n	1b38 <_usb_d_dev_ep_trans+0xcc>
    1c1c:	2013      	movs	r0, #19
    1c1e:	4240      	negs	r0, r0
    1c20:	e78a      	b.n	1b38 <_usb_d_dev_ep_trans+0xcc>
    1c22:	4643      	mov	r3, r8
    1c24:	685a      	ldr	r2, [r3, #4]
    1c26:	0597      	lsls	r7, r2, #22
    1c28:	0dbf      	lsrs	r7, r7, #22
    1c2a:	4d0d      	ldr	r5, [pc, #52]	; (1c60 <_usb_d_dev_ep_trans+0x1f4>)
    1c2c:	3574      	adds	r5, #116	; 0x74
    1c2e:	2400      	movs	r4, #0
    1c30:	e746      	b.n	1ac0 <_usb_d_dev_ep_trans+0x54>
    1c32:	4a0b      	ldr	r2, [pc, #44]	; (1c60 <_usb_d_dev_ep_trans+0x1f4>)
    1c34:	3260      	adds	r2, #96	; 0x60
    1c36:	8c91      	ldrh	r1, [r2, #36]	; 0x24
    1c38:	4a0a      	ldr	r2, [pc, #40]	; (1c64 <_usb_d_dev_ep_trans+0x1f8>)
    1c3a:	4291      	cmp	r1, r2
    1c3c:	d0f1      	beq.n	1c22 <_usb_d_dev_ep_trans+0x1b6>
    1c3e:	4d08      	ldr	r5, [pc, #32]	; (1c60 <_usb_d_dev_ep_trans+0x1f4>)
    1c40:	3574      	adds	r5, #116	; 0x74
    1c42:	2400      	movs	r4, #0
    1c44:	e734      	b.n	1ab0 <_usb_d_dev_ep_trans+0x44>
    1c46:	00a3      	lsls	r3, r4, #2
    1c48:	191b      	adds	r3, r3, r4
    1c4a:	009a      	lsls	r2, r3, #2
    1c4c:	4b04      	ldr	r3, [pc, #16]	; (1c60 <_usb_d_dev_ep_trans+0x1f4>)
    1c4e:	189b      	adds	r3, r3, r2
    1c50:	3380      	adds	r3, #128	; 0x80
    1c52:	681b      	ldr	r3, [r3, #0]
    1c54:	2b00      	cmp	r3, #0
    1c56:	d0e1      	beq.n	1c1c <_usb_d_dev_ep_trans+0x1b0>
    1c58:	2301      	movs	r3, #1
    1c5a:	4699      	mov	r9, r3
    1c5c:	e762      	b.n	1b24 <_usb_d_dev_ep_trans+0xb8>
    1c5e:	46c0      	nop			; (mov r8, r8)
    1c60:	200002ec 	.word	0x200002ec
    1c64:	000003ff 	.word	0x000003ff
    1c68:	1fffffff 	.word	0x1fffffff
    1c6c:	20000fff 	.word	0x20000fff
    1c70:	00000415 	.word	0x00000415
    1c74:	00000423 	.word	0x00000423
    1c78:	00001045 	.word	0x00001045
    1c7c:	00000e9d 	.word	0x00000e9d

00001c80 <_usb_d_dev_register_callback>:
    1c80:	1e0b      	subs	r3, r1, #0
    1c82:	d006      	beq.n	1c92 <_usb_d_dev_register_callback+0x12>
    1c84:	2801      	cmp	r0, #1
    1c86:	d006      	beq.n	1c96 <_usb_d_dev_register_callback+0x16>
    1c88:	2800      	cmp	r0, #0
    1c8a:	d101      	bne.n	1c90 <_usb_d_dev_register_callback+0x10>
    1c8c:	4a03      	ldr	r2, [pc, #12]	; (1c9c <_usb_d_dev_register_callback+0x1c>)
    1c8e:	6613      	str	r3, [r2, #96]	; 0x60
    1c90:	4770      	bx	lr
    1c92:	4b03      	ldr	r3, [pc, #12]	; (1ca0 <_usb_d_dev_register_callback+0x20>)
    1c94:	e7f6      	b.n	1c84 <_usb_d_dev_register_callback+0x4>
    1c96:	4a01      	ldr	r2, [pc, #4]	; (1c9c <_usb_d_dev_register_callback+0x1c>)
    1c98:	6653      	str	r3, [r2, #100]	; 0x64
    1c9a:	e7f9      	b.n	1c90 <_usb_d_dev_register_callback+0x10>
    1c9c:	200002ec 	.word	0x200002ec
    1ca0:	00000c05 	.word	0x00000c05

00001ca4 <_usb_d_dev_register_ep_callback>:
    1ca4:	1e0b      	subs	r3, r1, #0
    1ca6:	d008      	beq.n	1cba <_usb_d_dev_register_ep_callback+0x16>
    1ca8:	2800      	cmp	r0, #0
    1caa:	d008      	beq.n	1cbe <_usb_d_dev_register_ep_callback+0x1a>
    1cac:	2801      	cmp	r0, #1
    1cae:	d009      	beq.n	1cc4 <_usb_d_dev_register_ep_callback+0x20>
    1cb0:	2802      	cmp	r0, #2
    1cb2:	d106      	bne.n	1cc2 <_usb_d_dev_register_ep_callback+0x1e>
    1cb4:	4a05      	ldr	r2, [pc, #20]	; (1ccc <_usb_d_dev_register_ep_callback+0x28>)
    1cb6:	6713      	str	r3, [r2, #112]	; 0x70
    1cb8:	e003      	b.n	1cc2 <_usb_d_dev_register_ep_callback+0x1e>
    1cba:	4b05      	ldr	r3, [pc, #20]	; (1cd0 <_usb_d_dev_register_ep_callback+0x2c>)
    1cbc:	e7f4      	b.n	1ca8 <_usb_d_dev_register_ep_callback+0x4>
    1cbe:	4a03      	ldr	r2, [pc, #12]	; (1ccc <_usb_d_dev_register_ep_callback+0x28>)
    1cc0:	6693      	str	r3, [r2, #104]	; 0x68
    1cc2:	4770      	bx	lr
    1cc4:	4a01      	ldr	r2, [pc, #4]	; (1ccc <_usb_d_dev_register_ep_callback+0x28>)
    1cc6:	66d3      	str	r3, [r2, #108]	; 0x6c
    1cc8:	e7fb      	b.n	1cc2 <_usb_d_dev_register_ep_callback+0x1e>
    1cca:	46c0      	nop			; (mov r8, r8)
    1ccc:	200002ec 	.word	0x200002ec
    1cd0:	00000c05 	.word	0x00000c05

00001cd4 <USB_Handler>:
    1cd4:	b5f8      	push	{r3, r4, r5, r6, r7, lr}
    1cd6:	4b82      	ldr	r3, [pc, #520]	; (1ee0 <USB_Handler+0x20c>)
    1cd8:	8c1e      	ldrh	r6, [r3, #32]
    1cda:	b2b6      	uxth	r6, r6
    1cdc:	2e00      	cmp	r6, #0
    1cde:	d003      	beq.n	1ce8 <USB_Handler+0x14>
    1ce0:	4c80      	ldr	r4, [pc, #512]	; (1ee4 <USB_Handler+0x210>)
    1ce2:	3474      	adds	r4, #116	; 0x74
    1ce4:	2500      	movs	r5, #0
    1ce6:	e0b9      	b.n	1e5c <USB_Handler+0x188>
    1ce8:	8b99      	ldrh	r1, [r3, #28]
    1cea:	8b1b      	ldrh	r3, [r3, #24]
    1cec:	400b      	ands	r3, r1
    1cee:	075a      	lsls	r2, r3, #29
    1cf0:	d417      	bmi.n	1d22 <USB_Handler+0x4e>
    1cf2:	059a      	lsls	r2, r3, #22
    1cf4:	d41c      	bmi.n	1d30 <USB_Handler+0x5c>
    1cf6:	061a      	lsls	r2, r3, #24
    1cf8:	d43e      	bmi.n	1d78 <USB_Handler+0xa4>
    1cfa:	2270      	movs	r2, #112	; 0x70
    1cfc:	421a      	tst	r2, r3
    1cfe:	d144      	bne.n	1d8a <USB_Handler+0xb6>
    1d00:	071a      	lsls	r2, r3, #28
    1d02:	d45e      	bmi.n	1dc2 <USB_Handler+0xee>
    1d04:	07db      	lsls	r3, r3, #31
    1d06:	d5eb      	bpl.n	1ce0 <USB_Handler+0xc>
    1d08:	4b75      	ldr	r3, [pc, #468]	; (1ee0 <USB_Handler+0x20c>)
    1d0a:	4a77      	ldr	r2, [pc, #476]	; (1ee8 <USB_Handler+0x214>)
    1d0c:	839a      	strh	r2, [r3, #28]
    1d0e:	829a      	strh	r2, [r3, #20]
    1d10:	3a92      	subs	r2, #146	; 0x92
    1d12:	3aff      	subs	r2, #255	; 0xff
    1d14:	831a      	strh	r2, [r3, #24]
    1d16:	4b73      	ldr	r3, [pc, #460]	; (1ee4 <USB_Handler+0x210>)
    1d18:	6e5b      	ldr	r3, [r3, #100]	; 0x64
    1d1a:	2100      	movs	r1, #0
    1d1c:	2004      	movs	r0, #4
    1d1e:	4798      	blx	r3
    1d20:	e005      	b.n	1d2e <USB_Handler+0x5a>
    1d22:	2204      	movs	r2, #4
    1d24:	4b6e      	ldr	r3, [pc, #440]	; (1ee0 <USB_Handler+0x20c>)
    1d26:	839a      	strh	r2, [r3, #28]
    1d28:	4b6e      	ldr	r3, [pc, #440]	; (1ee4 <USB_Handler+0x210>)
    1d2a:	6e1b      	ldr	r3, [r3, #96]	; 0x60
    1d2c:	4798      	blx	r3
    1d2e:	bdf8      	pop	{r3, r4, r5, r6, r7, pc}
    1d30:	4b6b      	ldr	r3, [pc, #428]	; (1ee0 <USB_Handler+0x20c>)
    1d32:	4a6d      	ldr	r2, [pc, #436]	; (1ee8 <USB_Handler+0x214>)
    1d34:	839a      	strh	r2, [r3, #28]
    1d36:	829a      	strh	r2, [r3, #20]
    1d38:	3a92      	subs	r2, #146	; 0x92
    1d3a:	3aff      	subs	r2, #255	; 0xff
    1d3c:	831a      	strh	r2, [r3, #24]
    1d3e:	4b69      	ldr	r3, [pc, #420]	; (1ee4 <USB_Handler+0x210>)
    1d40:	891b      	ldrh	r3, [r3, #8]
    1d42:	071b      	lsls	r3, r3, #28
    1d44:	0f1b      	lsrs	r3, r3, #28
    1d46:	2b03      	cmp	r3, #3
    1d48:	d00c      	beq.n	1d64 <USB_Handler+0x90>
    1d4a:	4b66      	ldr	r3, [pc, #408]	; (1ee4 <USB_Handler+0x210>)
    1d4c:	8d1b      	ldrh	r3, [r3, #40]	; 0x28
    1d4e:	071b      	lsls	r3, r3, #28
    1d50:	0f1b      	lsrs	r3, r3, #28
    1d52:	2100      	movs	r1, #0
    1d54:	3a6f      	subs	r2, #111	; 0x6f
    1d56:	2b03      	cmp	r3, #3
    1d58:	d005      	beq.n	1d66 <USB_Handler+0x92>
    1d5a:	4b62      	ldr	r3, [pc, #392]	; (1ee4 <USB_Handler+0x210>)
    1d5c:	6e5b      	ldr	r3, [r3, #100]	; 0x64
    1d5e:	2003      	movs	r0, #3
    1d60:	4798      	blx	r3
    1d62:	e7e4      	b.n	1d2e <USB_Handler+0x5a>
    1d64:	2200      	movs	r2, #0
    1d66:	0152      	lsls	r2, r2, #5
    1d68:	4b5e      	ldr	r3, [pc, #376]	; (1ee4 <USB_Handler+0x210>)
    1d6a:	189b      	adds	r3, r3, r2
    1d6c:	8919      	ldrh	r1, [r3, #8]
    1d6e:	0449      	lsls	r1, r1, #17
    1d70:	0d49      	lsrs	r1, r1, #21
    1d72:	2200      	movs	r2, #0
    1d74:	811a      	strh	r2, [r3, #8]
    1d76:	e7f0      	b.n	1d5a <USB_Handler+0x86>
    1d78:	2280      	movs	r2, #128	; 0x80
    1d7a:	4b59      	ldr	r3, [pc, #356]	; (1ee0 <USB_Handler+0x20c>)
    1d7c:	839a      	strh	r2, [r3, #28]
    1d7e:	4b59      	ldr	r3, [pc, #356]	; (1ee4 <USB_Handler+0x210>)
    1d80:	6e5b      	ldr	r3, [r3, #100]	; 0x64
    1d82:	2100      	movs	r1, #0
    1d84:	2005      	movs	r0, #5
    1d86:	4798      	blx	r3
    1d88:	e7d1      	b.n	1d2e <USB_Handler+0x5a>
    1d8a:	4b55      	ldr	r3, [pc, #340]	; (1ee0 <USB_Handler+0x20c>)
    1d8c:	839a      	strh	r2, [r3, #28]
    1d8e:	829a      	strh	r2, [r3, #20]
    1d90:	4a55      	ldr	r2, [pc, #340]	; (1ee8 <USB_Handler+0x214>)
    1d92:	831a      	strh	r2, [r3, #24]
    1d94:	4b55      	ldr	r3, [pc, #340]	; (1eec <USB_Handler+0x218>)
    1d96:	8c9b      	ldrh	r3, [r3, #36]	; 0x24
    1d98:	069b      	lsls	r3, r3, #26
    1d9a:	d40c      	bmi.n	1db6 <USB_Handler+0xe2>
    1d9c:	4953      	ldr	r1, [pc, #332]	; (1eec <USB_Handler+0x218>)
    1d9e:	3a32      	subs	r2, #50	; 0x32
    1da0:	3aff      	subs	r2, #255	; 0xff
    1da2:	68cb      	ldr	r3, [r1, #12]
    1da4:	4013      	ands	r3, r2
    1da6:	2bd0      	cmp	r3, #208	; 0xd0
    1da8:	d1fb      	bne.n	1da2 <USB_Handler+0xce>
    1daa:	4b4e      	ldr	r3, [pc, #312]	; (1ee4 <USB_Handler+0x210>)
    1dac:	6e5b      	ldr	r3, [r3, #100]	; 0x64
    1dae:	2100      	movs	r1, #0
    1db0:	2002      	movs	r0, #2
    1db2:	4798      	blx	r3
    1db4:	e7bb      	b.n	1d2e <USB_Handler+0x5a>
    1db6:	494d      	ldr	r1, [pc, #308]	; (1eec <USB_Handler+0x218>)
    1db8:	2210      	movs	r2, #16
    1dba:	68cb      	ldr	r3, [r1, #12]
    1dbc:	421a      	tst	r2, r3
    1dbe:	d0fc      	beq.n	1dba <USB_Handler+0xe6>
    1dc0:	e7f3      	b.n	1daa <USB_Handler+0xd6>
    1dc2:	4b47      	ldr	r3, [pc, #284]	; (1ee0 <USB_Handler+0x20c>)
    1dc4:	2100      	movs	r1, #0
    1dc6:	2280      	movs	r2, #128	; 0x80
    1dc8:	0052      	lsls	r2, r2, #1
    1dca:	5499      	strb	r1, [r3, r2]
    1dcc:	3af8      	subs	r2, #248	; 0xf8
    1dce:	839a      	strh	r2, [r3, #28]
    1dd0:	3268      	adds	r2, #104	; 0x68
    1dd2:	829a      	strh	r2, [r3, #20]
    1dd4:	4a44      	ldr	r2, [pc, #272]	; (1ee8 <USB_Handler+0x214>)
    1dd6:	831a      	strh	r2, [r3, #24]
    1dd8:	4b45      	ldr	r3, [pc, #276]	; (1ef0 <USB_Handler+0x21c>)
    1dda:	4798      	blx	r3
    1ddc:	4b41      	ldr	r3, [pc, #260]	; (1ee4 <USB_Handler+0x210>)
    1dde:	6e5b      	ldr	r3, [r3, #100]	; 0x64
    1de0:	2100      	movs	r1, #0
    1de2:	2001      	movs	r0, #1
    1de4:	4798      	blx	r3
    1de6:	e7a2      	b.n	1d2e <USB_Handler+0x5a>
    1de8:	06cb      	lsls	r3, r1, #27
    1dea:	d407      	bmi.n	1dfc <USB_Handler+0x128>
    1dec:	064b      	lsls	r3, r1, #25
    1dee:	d408      	bmi.n	1e02 <USB_Handler+0x12e>
    1df0:	068b      	lsls	r3, r1, #26
    1df2:	d52e      	bpl.n	1e52 <USB_Handler+0x17e>
    1df4:	2100      	movs	r1, #0
    1df6:	4b3f      	ldr	r3, [pc, #252]	; (1ef4 <USB_Handler+0x220>)
    1df8:	4798      	blx	r3
    1dfa:	e02a      	b.n	1e52 <USB_Handler+0x17e>
    1dfc:	4b3e      	ldr	r3, [pc, #248]	; (1ef8 <USB_Handler+0x224>)
    1dfe:	4798      	blx	r3
    1e00:	e027      	b.n	1e52 <USB_Handler+0x17e>
    1e02:	2101      	movs	r1, #1
    1e04:	4b3b      	ldr	r3, [pc, #236]	; (1ef4 <USB_Handler+0x220>)
    1e06:	4798      	blx	r3
    1e08:	e023      	b.n	1e52 <USB_Handler+0x17e>
    1e0a:	064b      	lsls	r3, r1, #25
    1e0c:	d40e      	bmi.n	1e2c <USB_Handler+0x158>
    1e0e:	070b      	lsls	r3, r1, #28
    1e10:	d410      	bmi.n	1e34 <USB_Handler+0x160>
    1e12:	078b      	lsls	r3, r1, #30
    1e14:	d412      	bmi.n	1e3c <USB_Handler+0x168>
    1e16:	2307      	movs	r3, #7
    1e18:	401a      	ands	r2, r3
    1e1a:	2a01      	cmp	r2, #1
    1e1c:	d119      	bne.n	1e52 <USB_Handler+0x17e>
    1e1e:	074b      	lsls	r3, r1, #29
    1e20:	d410      	bmi.n	1e44 <USB_Handler+0x170>
    1e22:	06cb      	lsls	r3, r1, #27
    1e24:	d515      	bpl.n	1e52 <USB_Handler+0x17e>
    1e26:	4b34      	ldr	r3, [pc, #208]	; (1ef8 <USB_Handler+0x224>)
    1e28:	4798      	blx	r3
    1e2a:	e012      	b.n	1e52 <USB_Handler+0x17e>
    1e2c:	2101      	movs	r1, #1
    1e2e:	4b31      	ldr	r3, [pc, #196]	; (1ef4 <USB_Handler+0x220>)
    1e30:	4798      	blx	r3
    1e32:	e00e      	b.n	1e52 <USB_Handler+0x17e>
    1e34:	2101      	movs	r1, #1
    1e36:	4b31      	ldr	r3, [pc, #196]	; (1efc <USB_Handler+0x228>)
    1e38:	4798      	blx	r3
    1e3a:	e00a      	b.n	1e52 <USB_Handler+0x17e>
    1e3c:	2101      	movs	r1, #1
    1e3e:	4b30      	ldr	r3, [pc, #192]	; (1f00 <USB_Handler+0x22c>)
    1e40:	4798      	blx	r3
    1e42:	e006      	b.n	1e52 <USB_Handler+0x17e>
    1e44:	2100      	movs	r1, #0
    1e46:	4b2d      	ldr	r3, [pc, #180]	; (1efc <USB_Handler+0x228>)
    1e48:	4798      	blx	r3
    1e4a:	e002      	b.n	1e52 <USB_Handler+0x17e>
    1e4c:	2100      	movs	r1, #0
    1e4e:	4b29      	ldr	r3, [pc, #164]	; (1ef4 <USB_Handler+0x220>)
    1e50:	4798      	blx	r3
    1e52:	3501      	adds	r5, #1
    1e54:	3414      	adds	r4, #20
    1e56:	2d09      	cmp	r5, #9
    1e58:	d100      	bne.n	1e5c <USB_Handler+0x188>
    1e5a:	e768      	b.n	1d2e <USB_Handler+0x5a>
    1e5c:	0020      	movs	r0, r4
    1e5e:	7ca1      	ldrb	r1, [r4, #18]
    1e60:	29ff      	cmp	r1, #255	; 0xff
    1e62:	d0f6      	beq.n	1e52 <USB_Handler+0x17e>
    1e64:	230f      	movs	r3, #15
    1e66:	400b      	ands	r3, r1
    1e68:	2101      	movs	r1, #1
    1e6a:	4099      	lsls	r1, r3
    1e6c:	420e      	tst	r6, r1
    1e6e:	d0f0      	beq.n	1e52 <USB_Handler+0x17e>
    1e70:	0159      	lsls	r1, r3, #5
    1e72:	4f24      	ldr	r7, [pc, #144]	; (1f04 <USB_Handler+0x230>)
    1e74:	46bc      	mov	ip, r7
    1e76:	4461      	add	r1, ip
    1e78:	79c9      	ldrb	r1, [r1, #7]
    1e7a:	015b      	lsls	r3, r3, #5
    1e7c:	4f22      	ldr	r7, [pc, #136]	; (1f08 <USB_Handler+0x234>)
    1e7e:	46bc      	mov	ip, r7
    1e80:	4463      	add	r3, ip
    1e82:	781b      	ldrb	r3, [r3, #0]
    1e84:	4019      	ands	r1, r3
    1e86:	d0e4      	beq.n	1e52 <USB_Handler+0x17e>
    1e88:	00ab      	lsls	r3, r5, #2
    1e8a:	195a      	adds	r2, r3, r5
    1e8c:	0092      	lsls	r2, r2, #2
    1e8e:	4b15      	ldr	r3, [pc, #84]	; (1ee4 <USB_Handler+0x210>)
    1e90:	469c      	mov	ip, r3
    1e92:	4462      	add	r2, ip
    1e94:	3270      	adds	r2, #112	; 0x70
    1e96:	7dd2      	ldrb	r2, [r2, #23]
    1e98:	2347      	movs	r3, #71	; 0x47
    1e9a:	4013      	ands	r3, r2
    1e9c:	2b01      	cmp	r3, #1
    1e9e:	d0a3      	beq.n	1de8 <USB_Handler+0x114>
    1ea0:	b253      	sxtb	r3, r2
    1ea2:	2b00      	cmp	r3, #0
    1ea4:	dbb1      	blt.n	1e0a <USB_Handler+0x136>
    1ea6:	068b      	lsls	r3, r1, #26
    1ea8:	d4d0      	bmi.n	1e4c <USB_Handler+0x178>
    1eaa:	074b      	lsls	r3, r1, #29
    1eac:	d40c      	bmi.n	1ec8 <USB_Handler+0x1f4>
    1eae:	07cb      	lsls	r3, r1, #31
    1eb0:	d40e      	bmi.n	1ed0 <USB_Handler+0x1fc>
    1eb2:	2307      	movs	r3, #7
    1eb4:	401a      	ands	r2, r3
    1eb6:	2a01      	cmp	r2, #1
    1eb8:	d1cb      	bne.n	1e52 <USB_Handler+0x17e>
    1eba:	070b      	lsls	r3, r1, #28
    1ebc:	d40c      	bmi.n	1ed8 <USB_Handler+0x204>
    1ebe:	06cb      	lsls	r3, r1, #27
    1ec0:	d5c7      	bpl.n	1e52 <USB_Handler+0x17e>
    1ec2:	4b0d      	ldr	r3, [pc, #52]	; (1ef8 <USB_Handler+0x224>)
    1ec4:	4798      	blx	r3
    1ec6:	e7c4      	b.n	1e52 <USB_Handler+0x17e>
    1ec8:	2100      	movs	r1, #0
    1eca:	4b0c      	ldr	r3, [pc, #48]	; (1efc <USB_Handler+0x228>)
    1ecc:	4798      	blx	r3
    1ece:	e7c0      	b.n	1e52 <USB_Handler+0x17e>
    1ed0:	2101      	movs	r1, #1
    1ed2:	4b0e      	ldr	r3, [pc, #56]	; (1f0c <USB_Handler+0x238>)
    1ed4:	4798      	blx	r3
    1ed6:	e7bc      	b.n	1e52 <USB_Handler+0x17e>
    1ed8:	2101      	movs	r1, #1
    1eda:	4b08      	ldr	r3, [pc, #32]	; (1efc <USB_Handler+0x228>)
    1edc:	4798      	blx	r3
    1ede:	e7b8      	b.n	1e52 <USB_Handler+0x17e>
    1ee0:	41005000 	.word	0x41005000
    1ee4:	200002ec 	.word	0x200002ec
    1ee8:	00000201 	.word	0x00000201
    1eec:	40000800 	.word	0x40000800
    1ef0:	00000e59 	.word	0x00000e59
    1ef4:	00000c95 	.word	0x00000c95
    1ef8:	00000c09 	.word	0x00000c09
    1efc:	00000d59 	.word	0x00000d59
    1f00:	00000e9d 	.word	0x00000e9d
    1f04:	41005100 	.word	0x41005100
    1f08:	41005109 	.word	0x41005109
    1f0c:	00001045 	.word	0x00001045

00001f10 <main>:
	0x100, 0x200, 0x400
};
#define DEBUG_STEPS (sizeof(debug_leds)/sizeof(debug_leds[0]))

int main(void)
{
    1f10:	b5f0      	push	{r4, r5, r6, r7, lr}
    1f12:	46d6      	mov	lr, sl
    1f14:	4647      	mov	r7, r8
    1f16:	b580      	push	{r7, lr}
    1f18:	b08d      	sub	sp, #52	; 0x34
	atmel_start_init();
    1f1a:	4baa      	ldr	r3, [pc, #680]	; (21c4 <main+0x2b4>)
    1f1c:	4798      	blx	r3
	usb_serial_begin();
    1f1e:	4baa      	ldr	r3, [pc, #680]	; (21c8 <main+0x2b8>)
    1f20:	4798      	blx	r3

	

	bool didSplash = false; // USB splash screen flag
    1f22:	2500      	movs	r5, #0

	while (1)
	{
		// Handle typing timeout
		if (user_typing) {
    1f24:	4ba9      	ldr	r3, [pc, #676]	; (21cc <main+0x2bc>)
    1f26:	4698      	mov	r8, r3
	((Port *)hw)->Group[submodule_index].OUTTGL.reg = PORT_OUT_OUT(mask);
}

static inline void hri_port_set_OUT_reg(const void *const hw, uint8_t submodule_index, hri_port_out_reg_t mask)
{
	((Port *)hw)->Group[submodule_index].OUTSET.reg = mask;
    1f28:	26c0      	movs	r6, #192	; 0xc0
    1f2a:	05f6      	lsls	r6, r6, #23
		// USB RX + echo + backspace
		if (cdc_connected) {
			char ch;
			while (usb_serial_read(&ch, 1) > 0) {
				if (ch == '\r' || ch == '\n') {
					usb_serial_write("\r\n", 2);
    1f2c:	4fa8      	ldr	r7, [pc, #672]	; (21d0 <main+0x2c0>)
    1f2e:	e123      	b.n	2178 <main+0x268>
			else user_typing = false;
    1f30:	2200      	movs	r2, #0
    1f32:	4ba6      	ldr	r3, [pc, #664]	; (21cc <main+0x2bc>)
    1f34:	701a      	strb	r2, [r3, #0]
    1f36:	e12c      	b.n	2192 <main+0x282>
			count = 1024;
    1f38:	4da6      	ldr	r5, [pc, #664]	; (21d4 <main+0x2c4>)
    1f3a:	2380      	movs	r3, #128	; 0x80
    1f3c:	00db      	lsls	r3, r3, #3
    1f3e:	602b      	str	r3, [r5, #0]
    1f40:	4ba5      	ldr	r3, [pc, #660]	; (21d8 <main+0x2c8>)
    1f42:	61b3      	str	r3, [r6, #24]
			serial_boot_message();
    1f44:	4ba5      	ldr	r3, [pc, #660]	; (21dc <main+0x2cc>)
    1f46:	4798      	blx	r3
			count = 0;
    1f48:	2300      	movs	r3, #0
    1f4a:	602b      	str	r3, [r5, #0]
			counting = false;
    1f4c:	712b      	strb	r3, [r5, #4]
			didSplash = true;
    1f4e:	0025      	movs	r5, r4
		if (cdc_connected && !didSplash) {
    1f50:	e006      	b.n	1f60 <main+0x50>
		else if (!cdc_connected && didSplash) {
    1f52:	4ba3      	ldr	r3, [pc, #652]	; (21e0 <main+0x2d0>)
    1f54:	781b      	ldrb	r3, [r3, #0]
    1f56:	2b00      	cmp	r3, #0
    1f58:	d102      	bne.n	1f60 <main+0x50>
    1f5a:	2d00      	cmp	r5, #0
    1f5c:	d000      	beq.n	1f60 <main+0x50>
    1f5e:	e127      	b.n	21b0 <main+0x2a0>
		if (cdc_connected) {
    1f60:	4b9f      	ldr	r3, [pc, #636]	; (21e0 <main+0x2d0>)
    1f62:	781b      	ldrb	r3, [r3, #0]
    1f64:	2b00      	cmp	r3, #0
    1f66:	d158      	bne.n	201a <main+0x10a>
				}
			}
		}

		// DEBUG LED sequence
		if (debug_mode) {
    1f68:	4b9e      	ldr	r3, [pc, #632]	; (21e4 <main+0x2d4>)
    1f6a:	781b      	ldrb	r3, [r3, #0]
    1f6c:	2b00      	cmp	r3, #0
    1f6e:	d100      	bne.n	1f72 <main+0x62>
    1f70:	e0b6      	b.n	20e0 <main+0x1d0>
			debug_timer += speed;
    1f72:	4a9d      	ldr	r2, [pc, #628]	; (21e8 <main+0x2d8>)
    1f74:	4b97      	ldr	r3, [pc, #604]	; (21d4 <main+0x2c4>)
    1f76:	689b      	ldr	r3, [r3, #8]
    1f78:	6811      	ldr	r1, [r2, #0]
    1f7a:	468c      	mov	ip, r1
    1f7c:	4463      	add	r3, ip
    1f7e:	6013      	str	r3, [r2, #0]

			if (debug_step < DEBUG_STEPS) {
    1f80:	4a9a      	ldr	r2, [pc, #616]	; (21ec <main+0x2dc>)
    1f82:	7812      	ldrb	r2, [r2, #0]
    1f84:	2a0a      	cmp	r2, #10
    1f86:	d84a      	bhi.n	201e <main+0x10e>
				count = debug_leds[debug_step];
    1f88:	0051      	lsls	r1, r2, #1
    1f8a:	4899      	ldr	r0, [pc, #612]	; (21f0 <main+0x2e0>)
    1f8c:	5a08      	ldrh	r0, [r1, r0]
    1f8e:	4991      	ldr	r1, [pc, #580]	; (21d4 <main+0x2c4>)
    1f90:	6008      	str	r0, [r1, #0]
				if (debug_timer >= 50) { // 500ms per step
    1f92:	2b31      	cmp	r3, #49	; 0x31
    1f94:	d800      	bhi.n	1f98 <main+0x88>
    1f96:	e0a7      	b.n	20e8 <main+0x1d8>
					debug_step++;
    1f98:	3201      	adds	r2, #1
    1f9a:	4b94      	ldr	r3, [pc, #592]	; (21ec <main+0x2dc>)
    1f9c:	701a      	strb	r2, [r3, #0]
					debug_timer = 0;
    1f9e:	2200      	movs	r2, #0
    1fa0:	4b91      	ldr	r3, [pc, #580]	; (21e8 <main+0x2d8>)
    1fa2:	601a      	str	r2, [r3, #0]
    1fa4:	e0a0      	b.n	20e8 <main+0x1d8>
					usb_serial_write("\r\n", 2);
    1fa6:	2102      	movs	r1, #2
    1fa8:	4892      	ldr	r0, [pc, #584]	; (21f4 <main+0x2e4>)
    1faa:	47b8      	blx	r7
					if (usb_cmd_index > 0) {
    1fac:	4b92      	ldr	r3, [pc, #584]	; (21f8 <main+0x2e8>)
    1fae:	781b      	ldrb	r3, [r3, #0]
    1fb0:	2b00      	cmp	r3, #0
    1fb2:	d11c      	bne.n	1fee <main+0xde>
			while (usb_serial_read(&ch, 1) > 0) {
    1fb4:	2101      	movs	r1, #1
    1fb6:	a804      	add	r0, sp, #16
    1fb8:	47a0      	blx	r4
    1fba:	2800      	cmp	r0, #0
    1fbc:	ddd4      	ble.n	1f68 <main+0x58>
				if (ch == '\r' || ch == '\n') {
    1fbe:	ab04      	add	r3, sp, #16
    1fc0:	781b      	ldrb	r3, [r3, #0]
    1fc2:	2b0d      	cmp	r3, #13
    1fc4:	d0ef      	beq.n	1fa6 <main+0x96>
    1fc6:	2b0a      	cmp	r3, #10
    1fc8:	d0ed      	beq.n	1fa6 <main+0x96>
				if (ch == 0x08 || ch == 0x7F) {
    1fca:	2b08      	cmp	r3, #8
    1fcc:	d019      	beq.n	2002 <main+0xf2>
    1fce:	2b7f      	cmp	r3, #127	; 0x7f
    1fd0:	d017      	beq.n	2002 <main+0xf2>
				if (usb_cmd_index < CMD_BUFFER_SIZE - 1) {
    1fd2:	4a89      	ldr	r2, [pc, #548]	; (21f8 <main+0x2e8>)
    1fd4:	7812      	ldrb	r2, [r2, #0]
    1fd6:	2a3e      	cmp	r2, #62	; 0x3e
    1fd8:	d8ec      	bhi.n	1fb4 <main+0xa4>
					usb_cmd_buffer[usb_cmd_index++] = ch;
    1fda:	1c50      	adds	r0, r2, #1
    1fdc:	4986      	ldr	r1, [pc, #536]	; (21f8 <main+0x2e8>)
    1fde:	7008      	strb	r0, [r1, #0]
    1fe0:	4986      	ldr	r1, [pc, #536]	; (21fc <main+0x2ec>)
    1fe2:	548b      	strb	r3, [r1, r2]
					usb_serial_write(&ch, 1);
    1fe4:	2101      	movs	r1, #1
    1fe6:	a804      	add	r0, sp, #16
    1fe8:	4b79      	ldr	r3, [pc, #484]	; (21d0 <main+0x2c0>)
    1fea:	4798      	blx	r3
    1fec:	e7e2      	b.n	1fb4 <main+0xa4>
						usb_cmd_buffer[usb_cmd_index] = '\0';
    1fee:	4883      	ldr	r0, [pc, #524]	; (21fc <main+0x2ec>)
    1ff0:	2200      	movs	r2, #0
    1ff2:	4692      	mov	sl, r2
    1ff4:	54c2      	strb	r2, [r0, r3]
						handle_usb_command(usb_cmd_buffer);
    1ff6:	4b82      	ldr	r3, [pc, #520]	; (2200 <main+0x2f0>)
    1ff8:	4798      	blx	r3
						usb_cmd_index = 0;
    1ffa:	4b7f      	ldr	r3, [pc, #508]	; (21f8 <main+0x2e8>)
    1ffc:	4652      	mov	r2, sl
    1ffe:	701a      	strb	r2, [r3, #0]
    2000:	e7d8      	b.n	1fb4 <main+0xa4>
					if (usb_cmd_index > 0) {
    2002:	4b7d      	ldr	r3, [pc, #500]	; (21f8 <main+0x2e8>)
    2004:	781b      	ldrb	r3, [r3, #0]
    2006:	2b00      	cmp	r3, #0
    2008:	d0d4      	beq.n	1fb4 <main+0xa4>
						usb_cmd_index--;
    200a:	3b01      	subs	r3, #1
    200c:	4a7a      	ldr	r2, [pc, #488]	; (21f8 <main+0x2e8>)
    200e:	7013      	strb	r3, [r2, #0]
						usb_serial_write("\b \b", 3);
    2010:	2103      	movs	r1, #3
    2012:	487c      	ldr	r0, [pc, #496]	; (2204 <main+0x2f4>)
    2014:	4b6e      	ldr	r3, [pc, #440]	; (21d0 <main+0x2c0>)
    2016:	4798      	blx	r3
    2018:	e7cc      	b.n	1fb4 <main+0xa4>
			while (usb_serial_read(&ch, 1) > 0) {
    201a:	4c7b      	ldr	r4, [pc, #492]	; (2208 <main+0x2f8>)
    201c:	e7ca      	b.n	1fb4 <main+0xa4>
				}
				} else {
				// DEBUG done
				debug_mode = false;
    201e:	2200      	movs	r2, #0
    2020:	4b70      	ldr	r3, [pc, #448]	; (21e4 <main+0x2d4>)
    2022:	701a      	strb	r2, [r3, #0]
				counting = true; // resume normal counter
    2024:	4b6b      	ldr	r3, [pc, #428]	; (21d4 <main+0x2c4>)
    2026:	2101      	movs	r1, #1
    2028:	7119      	strb	r1, [r3, #4]
				count = 0;       // clear LEDs
    202a:	601a      	str	r2, [r3, #0]
			}
		}

		// Normal counter update (only if not in debug)
		if (!debug_mode && counting && !user_typing) {
    202c:	4b67      	ldr	r3, [pc, #412]	; (21cc <main+0x2bc>)
    202e:	781b      	ldrb	r3, [r3, #0]
    2030:	2b00      	cmp	r3, #0
    2032:	d159      	bne.n	20e8 <main+0x1d8>
			count++;
			count %= 1024;
    2034:	4a67      	ldr	r2, [pc, #412]	; (21d4 <main+0x2c4>)
			count++;
    2036:	6813      	ldr	r3, [r2, #0]
    2038:	3301      	adds	r3, #1
			count %= 1024;
    203a:	059b      	lsls	r3, r3, #22
    203c:	0d9b      	lsrs	r3, r3, #22
    203e:	6013      	str	r3, [r2, #0]
    2040:	e052      	b.n	20e8 <main+0x1d8>
 */
static inline uint32_t _gpio_get_level(const enum gpio_port port)
{
	uint32_t tmp;

	CRITICAL_SECTION_ENTER();
    2042:	a802      	add	r0, sp, #8
    2044:	4b71      	ldr	r3, [pc, #452]	; (220c <main+0x2fc>)
    2046:	4798      	blx	r3
	return ((Port *)hw)->Group[submodule_index].DIR.reg;
    2048:	6834      	ldr	r4, [r6, #0]
	return tmp;
}

static inline hri_port_in_reg_t hri_port_read_IN_reg(const void *const hw, uint8_t submodule_index)
{
	return ((Port *)hw)->Group[submodule_index].IN.reg;
    204a:	4b71      	ldr	r3, [pc, #452]	; (2210 <main+0x300>)
    204c:	6a1a      	ldr	r2, [r3, #32]
	return ((Port *)hw)->Group[submodule_index].OUT.reg;
    204e:	6933      	ldr	r3, [r6, #16]

	uint32_t dir_tmp = hri_port_read_DIR_reg(PORT_IOBUS, port);

	tmp = hri_port_read_IN_reg(PORT, port) & ~dir_tmp;
	tmp |= hri_port_read_OUT_reg(PORT_IOBUS, port) & dir_tmp;
    2050:	4053      	eors	r3, r2
    2052:	401c      	ands	r4, r3
    2054:	4054      	eors	r4, r2

	CRITICAL_SECTION_LEAVE();
    2056:	a802      	add	r0, sp, #8
    2058:	4b6e      	ldr	r3, [pc, #440]	; (2214 <main+0x304>)
    205a:	4798      	blx	r3
		// Button control
		if(!gpio_get_pin_level(PA16) && buttonHold < 255){
			buttonHold++;
			for (volatile uint32_t i = 0; i < 600000; i++);
		}
		else if(gpio_get_pin_level(PA16) && buttonHold != 0){
    205c:	03e3      	lsls	r3, r4, #15
    205e:	d521      	bpl.n	20a4 <main+0x194>
    2060:	4b65      	ldr	r3, [pc, #404]	; (21f8 <main+0x2e8>)
    2062:	785b      	ldrb	r3, [r3, #1]
    2064:	2b00      	cmp	r3, #0
    2066:	d01d      	beq.n	20a4 <main+0x194>
			if(buttonHold < 20){
    2068:	2b13      	cmp	r3, #19
    206a:	d814      	bhi.n	2096 <main+0x186>
				counting ^= true;
    206c:	4a59      	ldr	r2, [pc, #356]	; (21d4 <main+0x2c4>)
    206e:	7913      	ldrb	r3, [r2, #4]
    2070:	2101      	movs	r1, #1
    2072:	404b      	eors	r3, r1
    2074:	7113      	strb	r3, [r2, #4]
				if(clicked){
    2076:	4b60      	ldr	r3, [pc, #384]	; (21f8 <main+0x2e8>)
    2078:	789b      	ldrb	r3, [r3, #2]
    207a:	2b00      	cmp	r3, #0
    207c:	d007      	beq.n	208e <main+0x17e>
					clickTime = 0;
    207e:	2200      	movs	r2, #0
    2080:	4b5d      	ldr	r3, [pc, #372]	; (21f8 <main+0x2e8>)
    2082:	70da      	strb	r2, [r3, #3]
					count = 1023;
    2084:	4b54      	ldr	r3, [pc, #336]	; (21d8 <main+0x2c8>)
    2086:	4a53      	ldr	r2, [pc, #332]	; (21d4 <main+0x2c4>)
    2088:	6013      	str	r3, [r2, #0]
	((Port *)hw)->Group[submodule_index].OUTSET.reg = mask;
    208a:	61b3      	str	r3, [r6, #24]
    208c:	e006      	b.n	209c <main+0x18c>
					gpio_set_port_level(GPIO_PORTA, 1023, 1);
				} else clicked = true;
    208e:	2201      	movs	r2, #1
    2090:	4b59      	ldr	r3, [pc, #356]	; (21f8 <main+0x2e8>)
    2092:	709a      	strb	r2, [r3, #2]
    2094:	e002      	b.n	209c <main+0x18c>
				} else {

				counting = true;
    2096:	2201      	movs	r2, #1
    2098:	4b4e      	ldr	r3, [pc, #312]	; (21d4 <main+0x2c4>)
    209a:	711a      	strb	r2, [r3, #4]
			}
			buttonHold = 0;
    209c:	2200      	movs	r2, #0
    209e:	4b56      	ldr	r3, [pc, #344]	; (21f8 <main+0x2e8>)
    20a0:	705a      	strb	r2, [r3, #1]
    20a2:	e065      	b.n	2170 <main+0x260>
	CRITICAL_SECTION_ENTER();
    20a4:	a803      	add	r0, sp, #12
    20a6:	4b59      	ldr	r3, [pc, #356]	; (220c <main+0x2fc>)
    20a8:	4798      	blx	r3
	return ((Port *)hw)->Group[submodule_index].DIR.reg;
    20aa:	6834      	ldr	r4, [r6, #0]
	return ((Port *)hw)->Group[submodule_index].IN.reg;
    20ac:	4b58      	ldr	r3, [pc, #352]	; (2210 <main+0x300>)
    20ae:	6a1a      	ldr	r2, [r3, #32]
	return ((Port *)hw)->Group[submodule_index].OUT.reg;
    20b0:	6933      	ldr	r3, [r6, #16]
	tmp |= hri_port_read_OUT_reg(PORT_IOBUS, port) & dir_tmp;
    20b2:	4053      	eors	r3, r2
    20b4:	401c      	ands	r4, r3
    20b6:	4054      	eors	r4, r2
	CRITICAL_SECTION_LEAVE();
    20b8:	a803      	add	r0, sp, #12
    20ba:	4b56      	ldr	r3, [pc, #344]	; (2214 <main+0x304>)
    20bc:	4798      	blx	r3
		}
		else if (gpio_get_pin_level(PA16) && clicked){
    20be:	03e3      	lsls	r3, r4, #15
    20c0:	d556      	bpl.n	2170 <main+0x260>
    20c2:	4b4d      	ldr	r3, [pc, #308]	; (21f8 <main+0x2e8>)
    20c4:	789b      	ldrb	r3, [r3, #2]
    20c6:	2b00      	cmp	r3, #0
    20c8:	d052      	beq.n	2170 <main+0x260>
			clickTime++;
    20ca:	4a4b      	ldr	r2, [pc, #300]	; (21f8 <main+0x2e8>)
    20cc:	78d3      	ldrb	r3, [r2, #3]
    20ce:	3301      	adds	r3, #1
    20d0:	b2db      	uxtb	r3, r3
    20d2:	70d3      	strb	r3, [r2, #3]
			if(clickTime>5) clicked = false;
    20d4:	2b05      	cmp	r3, #5
    20d6:	d94b      	bls.n	2170 <main+0x260>
    20d8:	2200      	movs	r2, #0
    20da:	4b47      	ldr	r3, [pc, #284]	; (21f8 <main+0x2e8>)
    20dc:	709a      	strb	r2, [r3, #2]
    20de:	e047      	b.n	2170 <main+0x260>
		if (!debug_mode && counting && !user_typing) {
    20e0:	4b3c      	ldr	r3, [pc, #240]	; (21d4 <main+0x2c4>)
    20e2:	791b      	ldrb	r3, [r3, #4]
    20e4:	2b00      	cmp	r3, #0
    20e6:	d1a1      	bne.n	202c <main+0x11c>
	((Port *)hw)->Group[submodule_index].OUTCLR.reg = mask;
    20e8:	4b3b      	ldr	r3, [pc, #236]	; (21d8 <main+0x2c8>)
    20ea:	6173      	str	r3, [r6, #20]
		gpio_set_port_level(GPIO_PORTA, count & 1023, 1);
    20ec:	4b39      	ldr	r3, [pc, #228]	; (21d4 <main+0x2c4>)
    20ee:	681a      	ldr	r2, [r3, #0]
    20f0:	0593      	lsls	r3, r2, #22
    20f2:	0d9b      	lsrs	r3, r3, #22
	((Port *)hw)->Group[submodule_index].OUTSET.reg = mask;
    20f4:	61b3      	str	r3, [r6, #24]
		if (cdc_connected && didSplash) {
    20f6:	4b3a      	ldr	r3, [pc, #232]	; (21e0 <main+0x2d0>)
    20f8:	781b      	ldrb	r3, [r3, #0]
    20fa:	2b00      	cmp	r3, #0
    20fc:	d013      	beq.n	2126 <main+0x216>
    20fe:	2d00      	cmp	r5, #0
    2100:	d011      	beq.n	2126 <main+0x216>
			if (count != last_sent_count) {
    2102:	4b34      	ldr	r3, [pc, #208]	; (21d4 <main+0x2c4>)
    2104:	68db      	ldr	r3, [r3, #12]
    2106:	429a      	cmp	r2, r3
    2108:	d00d      	beq.n	2126 <main+0x216>
				sprintf(msg, "COUNT: %lu\r\n", (unsigned long)count);
    210a:	4943      	ldr	r1, [pc, #268]	; (2218 <main+0x308>)
    210c:	a804      	add	r0, sp, #16
    210e:	4b43      	ldr	r3, [pc, #268]	; (221c <main+0x30c>)
    2110:	4798      	blx	r3
				usb_serial_write(msg, strlen(msg));
    2112:	a804      	add	r0, sp, #16
    2114:	4b42      	ldr	r3, [pc, #264]	; (2220 <main+0x310>)
    2116:	4798      	blx	r3
    2118:	0001      	movs	r1, r0
    211a:	a804      	add	r0, sp, #16
    211c:	4b2c      	ldr	r3, [pc, #176]	; (21d0 <main+0x2c0>)
    211e:	4798      	blx	r3
				last_sent_count = count;
    2120:	4b2c      	ldr	r3, [pc, #176]	; (21d4 <main+0x2c4>)
    2122:	681a      	ldr	r2, [r3, #0]
    2124:	60da      	str	r2, [r3, #12]
	CRITICAL_SECTION_ENTER();
    2126:	a801      	add	r0, sp, #4
    2128:	4b38      	ldr	r3, [pc, #224]	; (220c <main+0x2fc>)
    212a:	4798      	blx	r3
	return ((Port *)hw)->Group[submodule_index].DIR.reg;
    212c:	6834      	ldr	r4, [r6, #0]
	return ((Port *)hw)->Group[submodule_index].IN.reg;
    212e:	4b38      	ldr	r3, [pc, #224]	; (2210 <main+0x300>)
    2130:	6a1a      	ldr	r2, [r3, #32]
	return ((Port *)hw)->Group[submodule_index].OUT.reg;
    2132:	6933      	ldr	r3, [r6, #16]
	tmp |= hri_port_read_OUT_reg(PORT_IOBUS, port) & dir_tmp;
    2134:	4053      	eors	r3, r2
    2136:	401c      	ands	r4, r3
    2138:	4054      	eors	r4, r2
	CRITICAL_SECTION_LEAVE();
    213a:	a801      	add	r0, sp, #4
    213c:	4b35      	ldr	r3, [pc, #212]	; (2214 <main+0x304>)
    213e:	4798      	blx	r3
		if(!gpio_get_pin_level(PA16) && buttonHold < 255){
    2140:	03e3      	lsls	r3, r4, #15
    2142:	d500      	bpl.n	2146 <main+0x236>
    2144:	e77d      	b.n	2042 <main+0x132>
    2146:	4b2c      	ldr	r3, [pc, #176]	; (21f8 <main+0x2e8>)
    2148:	785b      	ldrb	r3, [r3, #1]
    214a:	2bff      	cmp	r3, #255	; 0xff
    214c:	d100      	bne.n	2150 <main+0x240>
    214e:	e778      	b.n	2042 <main+0x132>
			buttonHold++;
    2150:	3301      	adds	r3, #1
    2152:	4a29      	ldr	r2, [pc, #164]	; (21f8 <main+0x2e8>)
    2154:	7053      	strb	r3, [r2, #1]
			for (volatile uint32_t i = 0; i < 600000; i++);
    2156:	2300      	movs	r3, #0
    2158:	9300      	str	r3, [sp, #0]
    215a:	9a00      	ldr	r2, [sp, #0]
    215c:	4b31      	ldr	r3, [pc, #196]	; (2224 <main+0x314>)
    215e:	429a      	cmp	r2, r3
    2160:	d806      	bhi.n	2170 <main+0x260>
    2162:	001a      	movs	r2, r3
    2164:	9b00      	ldr	r3, [sp, #0]
    2166:	3301      	adds	r3, #1
    2168:	9300      	str	r3, [sp, #0]
    216a:	9b00      	ldr	r3, [sp, #0]
    216c:	4293      	cmp	r3, r2
    216e:	d9f9      	bls.n	2164 <main+0x254>
		}

		delay_ms(speed);
    2170:	4b18      	ldr	r3, [pc, #96]	; (21d4 <main+0x2c4>)
    2172:	8918      	ldrh	r0, [r3, #8]
    2174:	4b2c      	ldr	r3, [pc, #176]	; (2228 <main+0x318>)
    2176:	4798      	blx	r3
		if (user_typing) {
    2178:	4643      	mov	r3, r8
    217a:	781b      	ldrb	r3, [r3, #0]
    217c:	2b00      	cmp	r3, #0
    217e:	d008      	beq.n	2192 <main+0x282>
			if (typing_timeout > 0) typing_timeout--;
    2180:	4b2a      	ldr	r3, [pc, #168]	; (222c <main+0x31c>)
    2182:	681b      	ldr	r3, [r3, #0]
    2184:	2b00      	cmp	r3, #0
    2186:	d100      	bne.n	218a <main+0x27a>
    2188:	e6d2      	b.n	1f30 <main+0x20>
    218a:	4a28      	ldr	r2, [pc, #160]	; (222c <main+0x31c>)
    218c:	6813      	ldr	r3, [r2, #0]
    218e:	3b01      	subs	r3, #1
    2190:	6013      	str	r3, [r2, #0]
		if (cdc_connected && !didSplash) {
    2192:	4b13      	ldr	r3, [pc, #76]	; (21e0 <main+0x2d0>)
    2194:	781c      	ldrb	r4, [r3, #0]
    2196:	b2e4      	uxtb	r4, r4
    2198:	2c00      	cmp	r4, #0
    219a:	d100      	bne.n	219e <main+0x28e>
    219c:	e6d9      	b.n	1f52 <main+0x42>
    219e:	2d00      	cmp	r5, #0
    21a0:	d100      	bne.n	21a4 <main+0x294>
    21a2:	e6c9      	b.n	1f38 <main+0x28>
		else if (!cdc_connected && didSplash) {
    21a4:	4b0e      	ldr	r3, [pc, #56]	; (21e0 <main+0x2d0>)
    21a6:	781d      	ldrb	r5, [r3, #0]
    21a8:	b2ed      	uxtb	r5, r5
    21aa:	2d00      	cmp	r5, #0
    21ac:	d000      	beq.n	21b0 <main+0x2a0>
    21ae:	e6d7      	b.n	1f60 <main+0x50>
			counting = true;
    21b0:	4b08      	ldr	r3, [pc, #32]	; (21d4 <main+0x2c4>)
    21b2:	2201      	movs	r2, #1
    21b4:	711a      	strb	r2, [r3, #4]
			count = 1024;
    21b6:	2280      	movs	r2, #128	; 0x80
    21b8:	00d2      	lsls	r2, r2, #3
    21ba:	601a      	str	r2, [r3, #0]
	((Port *)hw)->Group[submodule_index].OUTSET.reg = mask;
    21bc:	4b06      	ldr	r3, [pc, #24]	; (21d8 <main+0x2c8>)
    21be:	61b3      	str	r3, [r6, #24]
			didSplash = false;
    21c0:	2500      	movs	r5, #0
    21c2:	e6cd      	b.n	1f60 <main+0x50>
    21c4:	00000115 	.word	0x00000115
    21c8:	00002f55 	.word	0x00002f55
    21cc:	2000051f 	.word	0x2000051f
    21d0:	0000301d 	.word	0x0000301d
    21d4:	20000000 	.word	0x20000000
    21d8:	000003ff 	.word	0x000003ff
    21dc:	000030a5 	.word	0x000030a5
    21e0:	2000051e 	.word	0x2000051e
    21e4:	200005ec 	.word	0x200005ec
    21e8:	200005f0 	.word	0x200005f0
    21ec:	200005ed 	.word	0x200005ed
    21f0:	00003f4c 	.word	0x00003f4c
    21f4:	000042b4 	.word	0x000042b4
    21f8:	200004d4 	.word	0x200004d4
    21fc:	200005fc 	.word	0x200005fc
    2200:	00003129 	.word	0x00003129
    2204:	00003f64 	.word	0x00003f64
    2208:	00002f71 	.word	0x00002f71
    220c:	00000415 	.word	0x00000415
    2210:	41004400 	.word	0x41004400
    2214:	00000423 	.word	0x00000423
    2218:	00003f68 	.word	0x00003f68
    221c:	000034e5 	.word	0x000034e5
    2220:	0000353d 	.word	0x0000353d
    2224:	000927bf 	.word	0x000927bf
    2228:	00000431 	.word	0x00000431
    222c:	20000520 	.word	0x20000520

00002230 <cdcdf_acm_req>:
    2230:	b5f0      	push	{r4, r5, r6, r7, lr}
    2232:	b083      	sub	sp, #12
    2234:	0006      	movs	r6, r0
    2236:	000c      	movs	r4, r1
    2238:	0015      	movs	r5, r2
    223a:	780a      	ldrb	r2, [r1, #0]
    223c:	0653      	lsls	r3, r2, #25
    223e:	0f9b      	lsrs	r3, r3, #30
    2240:	2b01      	cmp	r3, #1
    2242:	d000      	beq.n	2246 <cdcdf_acm_req+0x16>
    2244:	e06c      	b.n	2320 <cdcdf_acm_req+0xf0>
    2246:	7909      	ldrb	r1, [r1, #4]
    2248:	7963      	ldrb	r3, [r4, #5]
    224a:	021b      	lsls	r3, r3, #8
    224c:	430b      	orrs	r3, r1
    224e:	493b      	ldr	r1, [pc, #236]	; (233c <cdcdf_acm_req+0x10c>)
    2250:	7809      	ldrb	r1, [r1, #0]
    2252:	4299      	cmp	r1, r3
    2254:	d003      	beq.n	225e <cdcdf_acm_req+0x2e>
    2256:	4939      	ldr	r1, [pc, #228]	; (233c <cdcdf_acm_req+0x10c>)
    2258:	7849      	ldrb	r1, [r1, #1]
    225a:	4299      	cmp	r1, r3
    225c:	d163      	bne.n	2326 <cdcdf_acm_req+0xf6>
    225e:	b252      	sxtb	r2, r2
    2260:	2a00      	cmp	r2, #0
    2262:	db0e      	blt.n	2282 <cdcdf_acm_req+0x52>
    2264:	79a7      	ldrb	r7, [r4, #6]
    2266:	79e3      	ldrb	r3, [r4, #7]
    2268:	021b      	lsls	r3, r3, #8
    226a:	431f      	orrs	r7, r3
    226c:	4b34      	ldr	r3, [pc, #208]	; (2340 <cdcdf_acm_req+0x110>)
    226e:	4798      	blx	r3
    2270:	7863      	ldrb	r3, [r4, #1]
    2272:	2b20      	cmp	r3, #32
    2274:	d018      	beq.n	22a8 <cdcdf_acm_req+0x78>
    2276:	2b22      	cmp	r3, #34	; 0x22
    2278:	d03c      	beq.n	22f4 <cdcdf_acm_req+0xc4>
    227a:	200d      	movs	r0, #13
    227c:	4240      	negs	r0, r0
    227e:	b003      	add	sp, #12
    2280:	bdf0      	pop	{r4, r5, r6, r7, pc}
    2282:	2d01      	cmp	r5, #1
    2284:	d052      	beq.n	232c <cdcdf_acm_req+0xfc>
    2286:	7863      	ldrb	r3, [r4, #1]
    2288:	2b21      	cmp	r3, #33	; 0x21
    228a:	d151      	bne.n	2330 <cdcdf_acm_req+0x100>
    228c:	79a2      	ldrb	r2, [r4, #6]
    228e:	79e3      	ldrb	r3, [r4, #7]
    2290:	021b      	lsls	r3, r3, #8
    2292:	4313      	orrs	r3, r2
    2294:	2b07      	cmp	r3, #7
    2296:	d14e      	bne.n	2336 <cdcdf_acm_req+0x106>
    2298:	2300      	movs	r3, #0
    229a:	2207      	movs	r2, #7
    229c:	4927      	ldr	r1, [pc, #156]	; (233c <cdcdf_acm_req+0x10c>)
    229e:	3108      	adds	r1, #8
    22a0:	0030      	movs	r0, r6
    22a2:	4c28      	ldr	r4, [pc, #160]	; (2344 <cdcdf_acm_req+0x114>)
    22a4:	47a0      	blx	r4
    22a6:	e7ea      	b.n	227e <cdcdf_acm_req+0x4e>
    22a8:	2f07      	cmp	r7, #7
    22aa:	d134      	bne.n	2316 <cdcdf_acm_req+0xe6>
    22ac:	2d00      	cmp	r5, #0
    22ae:	d01a      	beq.n	22e6 <cdcdf_acm_req+0xb6>
    22b0:	2207      	movs	r2, #7
    22b2:	0001      	movs	r1, r0
    22b4:	4668      	mov	r0, sp
    22b6:	4b24      	ldr	r3, [pc, #144]	; (2348 <cdcdf_acm_req+0x118>)
    22b8:	4798      	blx	r3
    22ba:	4b20      	ldr	r3, [pc, #128]	; (233c <cdcdf_acm_req+0x10c>)
    22bc:	691b      	ldr	r3, [r3, #16]
    22be:	2b00      	cmp	r3, #0
    22c0:	d005      	beq.n	22ce <cdcdf_acm_req+0x9e>
    22c2:	4668      	mov	r0, sp
    22c4:	4798      	blx	r3
    22c6:	0003      	movs	r3, r0
    22c8:	2000      	movs	r0, #0
    22ca:	2b00      	cmp	r3, #0
    22cc:	d0d7      	beq.n	227e <cdcdf_acm_req+0x4e>
    22ce:	4a1b      	ldr	r2, [pc, #108]	; (233c <cdcdf_acm_req+0x10c>)
    22d0:	0013      	movs	r3, r2
    22d2:	9900      	ldr	r1, [sp, #0]
    22d4:	6091      	str	r1, [r2, #8]
    22d6:	466a      	mov	r2, sp
    22d8:	8892      	ldrh	r2, [r2, #4]
    22da:	819a      	strh	r2, [r3, #12]
    22dc:	466a      	mov	r2, sp
    22de:	7992      	ldrb	r2, [r2, #6]
    22e0:	739a      	strb	r2, [r3, #14]
    22e2:	2000      	movs	r0, #0
    22e4:	e7cb      	b.n	227e <cdcdf_acm_req+0x4e>
    22e6:	2300      	movs	r3, #0
    22e8:	2207      	movs	r2, #7
    22ea:	0001      	movs	r1, r0
    22ec:	0030      	movs	r0, r6
    22ee:	4c15      	ldr	r4, [pc, #84]	; (2344 <cdcdf_acm_req+0x114>)
    22f0:	47a0      	blx	r4
    22f2:	e7c4      	b.n	227e <cdcdf_acm_req+0x4e>
    22f4:	2300      	movs	r3, #0
    22f6:	2200      	movs	r2, #0
    22f8:	2100      	movs	r1, #0
    22fa:	2000      	movs	r0, #0
    22fc:	4d11      	ldr	r5, [pc, #68]	; (2344 <cdcdf_acm_req+0x114>)
    22fe:	47a8      	blx	r5
    2300:	4b0e      	ldr	r3, [pc, #56]	; (233c <cdcdf_acm_req+0x10c>)
    2302:	695b      	ldr	r3, [r3, #20]
    2304:	2b00      	cmp	r3, #0
    2306:	d009      	beq.n	231c <cdcdf_acm_req+0xec>
    2308:	78a2      	ldrb	r2, [r4, #2]
    230a:	78e0      	ldrb	r0, [r4, #3]
    230c:	0200      	lsls	r0, r0, #8
    230e:	4310      	orrs	r0, r2
    2310:	4798      	blx	r3
    2312:	2000      	movs	r0, #0
    2314:	e7b3      	b.n	227e <cdcdf_acm_req+0x4e>
    2316:	2001      	movs	r0, #1
    2318:	4240      	negs	r0, r0
    231a:	e7b0      	b.n	227e <cdcdf_acm_req+0x4e>
    231c:	2000      	movs	r0, #0
    231e:	e7ae      	b.n	227e <cdcdf_acm_req+0x4e>
    2320:	200a      	movs	r0, #10
    2322:	4240      	negs	r0, r0
    2324:	e7ab      	b.n	227e <cdcdf_acm_req+0x4e>
    2326:	200a      	movs	r0, #10
    2328:	4240      	negs	r0, r0
    232a:	e7a8      	b.n	227e <cdcdf_acm_req+0x4e>
    232c:	2000      	movs	r0, #0
    232e:	e7a6      	b.n	227e <cdcdf_acm_req+0x4e>
    2330:	200d      	movs	r0, #13
    2332:	4240      	negs	r0, r0
    2334:	e7a3      	b.n	227e <cdcdf_acm_req+0x4e>
    2336:	2001      	movs	r0, #1
    2338:	4240      	negs	r0, r0
    233a:	e7a0      	b.n	227e <cdcdf_acm_req+0x4e>
    233c:	200004d8 	.word	0x200004d8
    2340:	00002ca9 	.word	0x00002ca9
    2344:	00002759 	.word	0x00002759
    2348:	000034c1 	.word	0x000034c1

0000234c <cdcdf_acm_ctrl>:
    234c:	b5f0      	push	{r4, r5, r6, r7, lr}
    234e:	46de      	mov	lr, fp
    2350:	4657      	mov	r7, sl
    2352:	464e      	mov	r6, r9
    2354:	4645      	mov	r5, r8
    2356:	b5e0      	push	{r5, r6, r7, lr}
    2358:	b083      	sub	sp, #12
    235a:	0016      	movs	r6, r2
    235c:	2901      	cmp	r1, #1
    235e:	d068      	beq.n	2432 <cdcdf_acm_ctrl+0xe6>
    2360:	2900      	cmp	r1, #0
    2362:	d00b      	beq.n	237c <cdcdf_acm_ctrl+0x30>
    2364:	2902      	cmp	r1, #2
    2366:	d100      	bne.n	236a <cdcdf_acm_ctrl+0x1e>
    2368:	e093      	b.n	2492 <cdcdf_acm_ctrl+0x146>
    236a:	200d      	movs	r0, #13
    236c:	4240      	negs	r0, r0
    236e:	b003      	add	sp, #12
    2370:	bc3c      	pop	{r2, r3, r4, r5}
    2372:	4690      	mov	r8, r2
    2374:	4699      	mov	r9, r3
    2376:	46a2      	mov	sl, r4
    2378:	46ab      	mov	fp, r5
    237a:	bdf0      	pop	{r4, r5, r6, r7, pc}
    237c:	6883      	ldr	r3, [r0, #8]
    237e:	4698      	mov	r8, r3
    2380:	6810      	ldr	r0, [r2, #0]
    2382:	2800      	cmp	r0, #0
    2384:	d100      	bne.n	2388 <cdcdf_acm_ctrl+0x3c>
    2386:	e087      	b.n	2498 <cdcdf_acm_ctrl+0x14c>
    2388:	9301      	str	r3, [sp, #4]
    238a:	2301      	movs	r3, #1
    238c:	4443      	add	r3, r8
    238e:	469b      	mov	fp, r3
    2390:	4f47      	ldr	r7, [pc, #284]	; (24b0 <cdcdf_acm_ctrl+0x164>)
    2392:	4b48      	ldr	r3, [pc, #288]	; (24b4 <cdcdf_acm_ctrl+0x168>)
    2394:	4699      	mov	r9, r3
    2396:	7882      	ldrb	r2, [r0, #2]
    2398:	7943      	ldrb	r3, [r0, #5]
    239a:	2108      	movs	r1, #8
    239c:	438b      	bics	r3, r1
    239e:	2b02      	cmp	r3, #2
    23a0:	d002      	beq.n	23a8 <cdcdf_acm_ctrl+0x5c>
    23a2:	200a      	movs	r0, #10
    23a4:	4240      	negs	r0, r0
    23a6:	e7e2      	b.n	236e <cdcdf_acm_ctrl+0x22>
    23a8:	9901      	ldr	r1, [sp, #4]
    23aa:	468a      	mov	sl, r1
    23ac:	780b      	ldrb	r3, [r1, #0]
    23ae:	429a      	cmp	r2, r3
    23b0:	d075      	beq.n	249e <cdcdf_acm_ctrl+0x152>
    23b2:	2bff      	cmp	r3, #255	; 0xff
    23b4:	d176      	bne.n	24a4 <cdcdf_acm_ctrl+0x158>
    23b6:	700a      	strb	r2, [r1, #0]
    23b8:	2205      	movs	r2, #5
    23ba:	6871      	ldr	r1, [r6, #4]
    23bc:	4b3e      	ldr	r3, [pc, #248]	; (24b8 <cdcdf_acm_ctrl+0x16c>)
    23be:	4798      	blx	r3
    23c0:	1e04      	subs	r4, r0, #0
    23c2:	d11e      	bne.n	2402 <cdcdf_acm_ctrl+0xb6>
    23c4:	6830      	ldr	r0, [r6, #0]
    23c6:	7803      	ldrb	r3, [r0, #0]
    23c8:	18c0      	adds	r0, r0, r3
    23ca:	2204      	movs	r2, #4
    23cc:	6871      	ldr	r1, [r6, #4]
    23ce:	4b3a      	ldr	r3, [pc, #232]	; (24b8 <cdcdf_acm_ctrl+0x16c>)
    23d0:	4798      	blx	r3
    23d2:	9b01      	ldr	r3, [sp, #4]
    23d4:	455b      	cmp	r3, fp
    23d6:	d027      	beq.n	2428 <cdcdf_acm_ctrl+0xdc>
    23d8:	9b01      	ldr	r3, [sp, #4]
    23da:	3301      	adds	r3, #1
    23dc:	9301      	str	r3, [sp, #4]
    23de:	2800      	cmp	r0, #0
    23e0:	d1d9      	bne.n	2396 <cdcdf_acm_ctrl+0x4a>
    23e2:	200a      	movs	r0, #10
    23e4:	4240      	negs	r0, r0
    23e6:	e7c2      	b.n	236e <cdcdf_acm_ctrl+0x22>
    23e8:	4653      	mov	r3, sl
    23ea:	709d      	strb	r5, [r3, #2]
    23ec:	0028      	movs	r0, r5
    23ee:	4b31      	ldr	r3, [pc, #196]	; (24b4 <cdcdf_acm_ctrl+0x168>)
    23f0:	4798      	blx	r3
    23f2:	6034      	str	r4, [r6, #0]
    23f4:	7820      	ldrb	r0, [r4, #0]
    23f6:	1820      	adds	r0, r4, r0
    23f8:	6871      	ldr	r1, [r6, #4]
    23fa:	4b30      	ldr	r3, [pc, #192]	; (24bc <cdcdf_acm_ctrl+0x170>)
    23fc:	4798      	blx	r3
    23fe:	1e04      	subs	r4, r0, #0
    2400:	d0e0      	beq.n	23c4 <cdcdf_acm_ctrl+0x78>
    2402:	78a5      	ldrb	r5, [r4, #2]
    2404:	7963      	ldrb	r3, [r4, #5]
    2406:	021b      	lsls	r3, r3, #8
    2408:	7922      	ldrb	r2, [r4, #4]
    240a:	18d2      	adds	r2, r2, r3
    240c:	b292      	uxth	r2, r2
    240e:	78e1      	ldrb	r1, [r4, #3]
    2410:	0028      	movs	r0, r5
    2412:	47b8      	blx	r7
    2414:	2800      	cmp	r0, #0
    2416:	d148      	bne.n	24aa <cdcdf_acm_ctrl+0x15e>
    2418:	b26b      	sxtb	r3, r5
    241a:	2b00      	cmp	r3, #0
    241c:	dbe4      	blt.n	23e8 <cdcdf_acm_ctrl+0x9c>
    241e:	4643      	mov	r3, r8
    2420:	711d      	strb	r5, [r3, #4]
    2422:	0028      	movs	r0, r5
    2424:	47c8      	blx	r9
    2426:	e7e4      	b.n	23f2 <cdcdf_acm_ctrl+0xa6>
    2428:	2201      	movs	r2, #1
    242a:	4b25      	ldr	r3, [pc, #148]	; (24c0 <cdcdf_acm_ctrl+0x174>)
    242c:	715a      	strb	r2, [r3, #5]
    242e:	2000      	movs	r0, #0
    2430:	e79d      	b.n	236e <cdcdf_acm_ctrl+0x22>
    2432:	6884      	ldr	r4, [r0, #8]
    2434:	2a00      	cmp	r2, #0
    2436:	d008      	beq.n	244a <cdcdf_acm_ctrl+0xfe>
    2438:	6813      	ldr	r3, [r2, #0]
    243a:	795b      	ldrb	r3, [r3, #5]
    243c:	2208      	movs	r2, #8
    243e:	4393      	bics	r3, r2
    2440:	2b02      	cmp	r3, #2
    2442:	d002      	beq.n	244a <cdcdf_acm_ctrl+0xfe>
    2444:	200a      	movs	r0, #10
    2446:	4240      	negs	r0, r0
    2448:	e791      	b.n	236e <cdcdf_acm_ctrl+0x22>
    244a:	7823      	ldrb	r3, [r4, #0]
    244c:	2bff      	cmp	r3, #255	; 0xff
    244e:	d008      	beq.n	2462 <cdcdf_acm_ctrl+0x116>
    2450:	23ff      	movs	r3, #255	; 0xff
    2452:	7023      	strb	r3, [r4, #0]
    2454:	78a0      	ldrb	r0, [r4, #2]
    2456:	28ff      	cmp	r0, #255	; 0xff
    2458:	d003      	beq.n	2462 <cdcdf_acm_ctrl+0x116>
    245a:	4b1a      	ldr	r3, [pc, #104]	; (24c4 <cdcdf_acm_ctrl+0x178>)
    245c:	4798      	blx	r3
    245e:	23ff      	movs	r3, #255	; 0xff
    2460:	70a3      	strb	r3, [r4, #2]
    2462:	7863      	ldrb	r3, [r4, #1]
    2464:	2bff      	cmp	r3, #255	; 0xff
    2466:	d008      	beq.n	247a <cdcdf_acm_ctrl+0x12e>
    2468:	23ff      	movs	r3, #255	; 0xff
    246a:	7063      	strb	r3, [r4, #1]
    246c:	78e0      	ldrb	r0, [r4, #3]
    246e:	28ff      	cmp	r0, #255	; 0xff
    2470:	d003      	beq.n	247a <cdcdf_acm_ctrl+0x12e>
    2472:	4b14      	ldr	r3, [pc, #80]	; (24c4 <cdcdf_acm_ctrl+0x178>)
    2474:	4798      	blx	r3
    2476:	23ff      	movs	r3, #255	; 0xff
    2478:	70e3      	strb	r3, [r4, #3]
    247a:	7920      	ldrb	r0, [r4, #4]
    247c:	28ff      	cmp	r0, #255	; 0xff
    247e:	d003      	beq.n	2488 <cdcdf_acm_ctrl+0x13c>
    2480:	4b10      	ldr	r3, [pc, #64]	; (24c4 <cdcdf_acm_ctrl+0x178>)
    2482:	4798      	blx	r3
    2484:	23ff      	movs	r3, #255	; 0xff
    2486:	7123      	strb	r3, [r4, #4]
    2488:	2200      	movs	r2, #0
    248a:	4b0d      	ldr	r3, [pc, #52]	; (24c0 <cdcdf_acm_ctrl+0x174>)
    248c:	715a      	strb	r2, [r3, #5]
    248e:	2000      	movs	r0, #0
    2490:	e76d      	b.n	236e <cdcdf_acm_ctrl+0x22>
    2492:	201b      	movs	r0, #27
    2494:	4240      	negs	r0, r0
    2496:	e76a      	b.n	236e <cdcdf_acm_ctrl+0x22>
    2498:	200a      	movs	r0, #10
    249a:	4240      	negs	r0, r0
    249c:	e767      	b.n	236e <cdcdf_acm_ctrl+0x22>
    249e:	2012      	movs	r0, #18
    24a0:	4240      	negs	r0, r0
    24a2:	e764      	b.n	236e <cdcdf_acm_ctrl+0x22>
    24a4:	201c      	movs	r0, #28
    24a6:	4240      	negs	r0, r0
    24a8:	e761      	b.n	236e <cdcdf_acm_ctrl+0x22>
    24aa:	2014      	movs	r0, #20
    24ac:	4240      	negs	r0, r0
    24ae:	e75e      	b.n	236e <cdcdf_acm_ctrl+0x22>
    24b0:	00000755 	.word	0x00000755
    24b4:	000007e9 	.word	0x000007e9
    24b8:	00002cc5 	.word	0x00002cc5
    24bc:	00002cfb 	.word	0x00002cfb
    24c0:	200004d8 	.word	0x200004d8
    24c4:	000007bd 	.word	0x000007bd

000024c8 <cdcdf_acm_init>:
    24c8:	b510      	push	{r4, lr}
    24ca:	4b0a      	ldr	r3, [pc, #40]	; (24f4 <cdcdf_acm_init+0x2c>)
    24cc:	4798      	blx	r3
    24ce:	2801      	cmp	r0, #1
    24d0:	d80c      	bhi.n	24ec <cdcdf_acm_init+0x24>
    24d2:	4809      	ldr	r0, [pc, #36]	; (24f8 <cdcdf_acm_init+0x30>)
    24d4:	4b09      	ldr	r3, [pc, #36]	; (24fc <cdcdf_acm_init+0x34>)
    24d6:	61c3      	str	r3, [r0, #28]
    24d8:	6200      	str	r0, [r0, #32]
    24da:	3018      	adds	r0, #24
    24dc:	4b08      	ldr	r3, [pc, #32]	; (2500 <cdcdf_acm_init+0x38>)
    24de:	4798      	blx	r3
    24e0:	4908      	ldr	r1, [pc, #32]	; (2504 <cdcdf_acm_init+0x3c>)
    24e2:	2001      	movs	r0, #1
    24e4:	4b08      	ldr	r3, [pc, #32]	; (2508 <cdcdf_acm_init+0x40>)
    24e6:	4798      	blx	r3
    24e8:	2000      	movs	r0, #0
    24ea:	bd10      	pop	{r4, pc}
    24ec:	2011      	movs	r0, #17
    24ee:	4240      	negs	r0, r0
    24f0:	e7fb      	b.n	24ea <cdcdf_acm_init+0x22>
    24f2:	46c0      	nop			; (mov r8, r8)
    24f4:	00002cb5 	.word	0x00002cb5
    24f8:	200004d8 	.word	0x200004d8
    24fc:	0000234d 	.word	0x0000234d
    2500:	00002c4d 	.word	0x00002c4d
    2504:	20000010 	.word	0x20000010
    2508:	00002bb5 	.word	0x00002bb5

0000250c <cdcdf_acm_read>:
    250c:	b510      	push	{r4, lr}
    250e:	0004      	movs	r4, r0
    2510:	4b07      	ldr	r3, [pc, #28]	; (2530 <cdcdf_acm_read+0x24>)
    2512:	795b      	ldrb	r3, [r3, #5]
    2514:	2b00      	cmp	r3, #0
    2516:	d007      	beq.n	2528 <cdcdf_acm_read+0x1c>
    2518:	4b05      	ldr	r3, [pc, #20]	; (2530 <cdcdf_acm_read+0x24>)
    251a:	7918      	ldrb	r0, [r3, #4]
    251c:	2300      	movs	r3, #0
    251e:	000a      	movs	r2, r1
    2520:	0021      	movs	r1, r4
    2522:	4c04      	ldr	r4, [pc, #16]	; (2534 <cdcdf_acm_read+0x28>)
    2524:	47a0      	blx	r4
    2526:	bd10      	pop	{r4, pc}
    2528:	2011      	movs	r0, #17
    252a:	4240      	negs	r0, r0
    252c:	e7fb      	b.n	2526 <cdcdf_acm_read+0x1a>
    252e:	46c0      	nop			; (mov r8, r8)
    2530:	200004d8 	.word	0x200004d8
    2534:	00002759 	.word	0x00002759

00002538 <cdcdf_acm_write>:
    2538:	b510      	push	{r4, lr}
    253a:	0004      	movs	r4, r0
    253c:	4b07      	ldr	r3, [pc, #28]	; (255c <cdcdf_acm_write+0x24>)
    253e:	795b      	ldrb	r3, [r3, #5]
    2540:	2b00      	cmp	r3, #0
    2542:	d007      	beq.n	2554 <cdcdf_acm_write+0x1c>
    2544:	4b05      	ldr	r3, [pc, #20]	; (255c <cdcdf_acm_write+0x24>)
    2546:	78d8      	ldrb	r0, [r3, #3]
    2548:	2301      	movs	r3, #1
    254a:	000a      	movs	r2, r1
    254c:	0021      	movs	r1, r4
    254e:	4c04      	ldr	r4, [pc, #16]	; (2560 <cdcdf_acm_write+0x28>)
    2550:	47a0      	blx	r4
    2552:	bd10      	pop	{r4, pc}
    2554:	2011      	movs	r0, #17
    2556:	4240      	negs	r0, r0
    2558:	e7fb      	b.n	2552 <cdcdf_acm_write+0x1a>
    255a:	46c0      	nop			; (mov r8, r8)
    255c:	200004d8 	.word	0x200004d8
    2560:	00002759 	.word	0x00002759

00002564 <cdcdf_acm_register_callback>:
    2564:	b510      	push	{r4, lr}
    2566:	2801      	cmp	r0, #1
    2568:	d010      	beq.n	258c <cdcdf_acm_register_callback+0x28>
    256a:	2800      	cmp	r0, #0
    256c:	d006      	beq.n	257c <cdcdf_acm_register_callback+0x18>
    256e:	2802      	cmp	r0, #2
    2570:	d014      	beq.n	259c <cdcdf_acm_register_callback+0x38>
    2572:	2803      	cmp	r0, #3
    2574:	d016      	beq.n	25a4 <cdcdf_acm_register_callback+0x40>
    2576:	200d      	movs	r0, #13
    2578:	4240      	negs	r0, r0
    257a:	e006      	b.n	258a <cdcdf_acm_register_callback+0x26>
    257c:	4b0b      	ldr	r3, [pc, #44]	; (25ac <cdcdf_acm_register_callback+0x48>)
    257e:	7918      	ldrb	r0, [r3, #4]
    2580:	000a      	movs	r2, r1
    2582:	2102      	movs	r1, #2
    2584:	4b0a      	ldr	r3, [pc, #40]	; (25b0 <cdcdf_acm_register_callback+0x4c>)
    2586:	4798      	blx	r3
    2588:	2000      	movs	r0, #0
    258a:	bd10      	pop	{r4, pc}
    258c:	4b07      	ldr	r3, [pc, #28]	; (25ac <cdcdf_acm_register_callback+0x48>)
    258e:	78d8      	ldrb	r0, [r3, #3]
    2590:	000a      	movs	r2, r1
    2592:	2102      	movs	r1, #2
    2594:	4b06      	ldr	r3, [pc, #24]	; (25b0 <cdcdf_acm_register_callback+0x4c>)
    2596:	4798      	blx	r3
    2598:	2000      	movs	r0, #0
    259a:	e7f6      	b.n	258a <cdcdf_acm_register_callback+0x26>
    259c:	4b03      	ldr	r3, [pc, #12]	; (25ac <cdcdf_acm_register_callback+0x48>)
    259e:	6119      	str	r1, [r3, #16]
    25a0:	2000      	movs	r0, #0
    25a2:	e7f2      	b.n	258a <cdcdf_acm_register_callback+0x26>
    25a4:	4b01      	ldr	r3, [pc, #4]	; (25ac <cdcdf_acm_register_callback+0x48>)
    25a6:	6159      	str	r1, [r3, #20]
    25a8:	2000      	movs	r0, #0
    25aa:	e7ee      	b.n	258a <cdcdf_acm_register_callback+0x26>
    25ac:	200004d8 	.word	0x200004d8
    25b0:	000009c5 	.word	0x000009c5

000025b4 <usbdc_unconfig>:
    25b4:	b510      	push	{r4, lr}
    25b6:	4b06      	ldr	r3, [pc, #24]	; (25d0 <usbdc_unconfig+0x1c>)
    25b8:	691c      	ldr	r4, [r3, #16]
    25ba:	2c00      	cmp	r4, #0
    25bc:	d007      	beq.n	25ce <usbdc_unconfig+0x1a>
    25be:	2200      	movs	r2, #0
    25c0:	2101      	movs	r1, #1
    25c2:	0020      	movs	r0, r4
    25c4:	6863      	ldr	r3, [r4, #4]
    25c6:	4798      	blx	r3
    25c8:	6824      	ldr	r4, [r4, #0]
    25ca:	2c00      	cmp	r4, #0
    25cc:	d1f7      	bne.n	25be <usbdc_unconfig+0xa>
    25ce:	bd10      	pop	{r4, pc}
    25d0:	200004fc 	.word	0x200004fc

000025d4 <usbdc_change_notify>:
    25d4:	b570      	push	{r4, r5, r6, lr}
    25d6:	0006      	movs	r6, r0
    25d8:	000d      	movs	r5, r1
    25da:	4b07      	ldr	r3, [pc, #28]	; (25f8 <usbdc_change_notify+0x24>)
    25dc:	68dc      	ldr	r4, [r3, #12]
    25de:	2c00      	cmp	r4, #0
    25e0:	d103      	bne.n	25ea <usbdc_change_notify+0x16>
    25e2:	bd70      	pop	{r4, r5, r6, pc}
    25e4:	6824      	ldr	r4, [r4, #0]
    25e6:	2c00      	cmp	r4, #0
    25e8:	d0fb      	beq.n	25e2 <usbdc_change_notify+0xe>
    25ea:	6863      	ldr	r3, [r4, #4]
    25ec:	2b00      	cmp	r3, #0
    25ee:	d0f9      	beq.n	25e4 <usbdc_change_notify+0x10>
    25f0:	0029      	movs	r1, r5
    25f2:	0030      	movs	r0, r6
    25f4:	4798      	blx	r3
    25f6:	e7f5      	b.n	25e4 <usbdc_change_notify+0x10>
    25f8:	200004fc 	.word	0x200004fc

000025fc <usbdc_request_handler>:
    25fc:	b5f8      	push	{r3, r4, r5, r6, r7, lr}
    25fe:	0007      	movs	r7, r0
    2600:	000e      	movs	r6, r1
    2602:	0015      	movs	r5, r2
    2604:	4b0d      	ldr	r3, [pc, #52]	; (263c <usbdc_request_handler+0x40>)
    2606:	689c      	ldr	r4, [r3, #8]
    2608:	2c00      	cmp	r4, #0
    260a:	d104      	bne.n	2616 <usbdc_request_handler+0x1a>
    260c:	2000      	movs	r0, #0
    260e:	e011      	b.n	2634 <usbdc_request_handler+0x38>
    2610:	6824      	ldr	r4, [r4, #0]
    2612:	2c00      	cmp	r4, #0
    2614:	d00d      	beq.n	2632 <usbdc_request_handler+0x36>
    2616:	6863      	ldr	r3, [r4, #4]
    2618:	2b00      	cmp	r3, #0
    261a:	d0f9      	beq.n	2610 <usbdc_request_handler+0x14>
    261c:	002a      	movs	r2, r5
    261e:	0031      	movs	r1, r6
    2620:	0038      	movs	r0, r7
    2622:	4798      	blx	r3
    2624:	2800      	cmp	r0, #0
    2626:	d006      	beq.n	2636 <usbdc_request_handler+0x3a>
    2628:	300a      	adds	r0, #10
    262a:	d0f1      	beq.n	2610 <usbdc_request_handler+0x14>
    262c:	2001      	movs	r0, #1
    262e:	4240      	negs	r0, r0
    2630:	e000      	b.n	2634 <usbdc_request_handler+0x38>
    2632:	2000      	movs	r0, #0
    2634:	bdf8      	pop	{r3, r4, r5, r6, r7, pc}
    2636:	2001      	movs	r0, #1
    2638:	e7fc      	b.n	2634 <usbdc_request_handler+0x38>
    263a:	46c0      	nop			; (mov r8, r8)
    263c:	200004fc 	.word	0x200004fc

00002640 <usbd_sof_cb>:
    2640:	b510      	push	{r4, lr}
    2642:	4b06      	ldr	r3, [pc, #24]	; (265c <usbd_sof_cb+0x1c>)
    2644:	685c      	ldr	r4, [r3, #4]
    2646:	2c00      	cmp	r4, #0
    2648:	d103      	bne.n	2652 <usbd_sof_cb+0x12>
    264a:	bd10      	pop	{r4, pc}
    264c:	6824      	ldr	r4, [r4, #0]
    264e:	2c00      	cmp	r4, #0
    2650:	d0fb      	beq.n	264a <usbd_sof_cb+0xa>
    2652:	6863      	ldr	r3, [r4, #4]
    2654:	2b00      	cmp	r3, #0
    2656:	d0f9      	beq.n	264c <usbd_sof_cb+0xc>
    2658:	4798      	blx	r3
    265a:	e7f7      	b.n	264c <usbd_sof_cb+0xc>
    265c:	200004fc 	.word	0x200004fc

00002660 <usbdc_cb_ctl_done>:
    2660:	b510      	push	{r4, lr}
    2662:	0014      	movs	r4, r2
    2664:	2900      	cmp	r1, #0
    2666:	d003      	beq.n	2670 <usbdc_cb_ctl_done+0x10>
    2668:	2901      	cmp	r1, #1
    266a:	d029      	beq.n	26c0 <usbdc_cb_ctl_done+0x60>
    266c:	2000      	movs	r0, #0
    266e:	bd10      	pop	{r4, pc}
    2670:	7813      	ldrb	r3, [r2, #0]
    2672:	2b00      	cmp	r3, #0
    2674:	d1fa      	bne.n	266c <usbdc_cb_ctl_done+0xc>
    2676:	7853      	ldrb	r3, [r2, #1]
    2678:	2b05      	cmp	r3, #5
    267a:	d011      	beq.n	26a0 <usbdc_cb_ctl_done+0x40>
    267c:	2b09      	cmp	r3, #9
    267e:	d1f5      	bne.n	266c <usbdc_cb_ctl_done+0xc>
    2680:	7892      	ldrb	r2, [r2, #2]
    2682:	4b12      	ldr	r3, [pc, #72]	; (26cc <usbdc_cb_ctl_done+0x6c>)
    2684:	76da      	strb	r2, [r3, #27]
    2686:	78a3      	ldrb	r3, [r4, #2]
    2688:	78e1      	ldrb	r1, [r4, #3]
    268a:	0209      	lsls	r1, r1, #8
    268c:	4319      	orrs	r1, r3
    268e:	1e4b      	subs	r3, r1, #1
    2690:	4199      	sbcs	r1, r3
    2692:	3103      	adds	r1, #3
    2694:	4b0d      	ldr	r3, [pc, #52]	; (26cc <usbdc_cb_ctl_done+0x6c>)
    2696:	7699      	strb	r1, [r3, #26]
    2698:	2001      	movs	r0, #1
    269a:	4b0d      	ldr	r3, [pc, #52]	; (26d0 <usbdc_cb_ctl_done+0x70>)
    269c:	4798      	blx	r3
    269e:	e7e5      	b.n	266c <usbdc_cb_ctl_done+0xc>
    26a0:	7890      	ldrb	r0, [r2, #2]
    26a2:	4b0c      	ldr	r3, [pc, #48]	; (26d4 <usbdc_cb_ctl_done+0x74>)
    26a4:	4798      	blx	r3
    26a6:	78a3      	ldrb	r3, [r4, #2]
    26a8:	78e1      	ldrb	r1, [r4, #3]
    26aa:	0209      	lsls	r1, r1, #8
    26ac:	4319      	orrs	r1, r3
    26ae:	1e4b      	subs	r3, r1, #1
    26b0:	4199      	sbcs	r1, r3
    26b2:	3102      	adds	r1, #2
    26b4:	4b05      	ldr	r3, [pc, #20]	; (26cc <usbdc_cb_ctl_done+0x6c>)
    26b6:	7699      	strb	r1, [r3, #26]
    26b8:	2001      	movs	r0, #1
    26ba:	4b05      	ldr	r3, [pc, #20]	; (26d0 <usbdc_cb_ctl_done+0x70>)
    26bc:	4798      	blx	r3
    26be:	e7d5      	b.n	266c <usbdc_cb_ctl_done+0xc>
    26c0:	2201      	movs	r2, #1
    26c2:	0021      	movs	r1, r4
    26c4:	2000      	movs	r0, #0
    26c6:	4b04      	ldr	r3, [pc, #16]	; (26d8 <usbdc_cb_ctl_done+0x78>)
    26c8:	4798      	blx	r3
    26ca:	e7cf      	b.n	266c <usbdc_cb_ctl_done+0xc>
    26cc:	200004fc 	.word	0x200004fc
    26d0:	000025d5 	.word	0x000025d5
    26d4:	00000749 	.word	0x00000749
    26d8:	000025fd 	.word	0x000025fd

000026dc <usbdc_reset>:
    26dc:	b510      	push	{r4, lr}
    26de:	4b0d      	ldr	r3, [pc, #52]	; (2714 <usbdc_reset+0x38>)
    26e0:	4798      	blx	r3
    26e2:	4c0d      	ldr	r4, [pc, #52]	; (2718 <usbdc_reset+0x3c>)
    26e4:	2302      	movs	r3, #2
    26e6:	76a3      	strb	r3, [r4, #26]
    26e8:	2300      	movs	r3, #0
    26ea:	76e3      	strb	r3, [r4, #27]
    26ec:	7763      	strb	r3, [r4, #29]
    26ee:	2000      	movs	r0, #0
    26f0:	4b0a      	ldr	r3, [pc, #40]	; (271c <usbdc_reset+0x40>)
    26f2:	4798      	blx	r3
    26f4:	7f20      	ldrb	r0, [r4, #28]
    26f6:	4b0a      	ldr	r3, [pc, #40]	; (2720 <usbdc_reset+0x44>)
    26f8:	4798      	blx	r3
    26fa:	4a0a      	ldr	r2, [pc, #40]	; (2724 <usbdc_reset+0x48>)
    26fc:	2100      	movs	r1, #0
    26fe:	2000      	movs	r0, #0
    2700:	4c09      	ldr	r4, [pc, #36]	; (2728 <usbdc_reset+0x4c>)
    2702:	47a0      	blx	r4
    2704:	4a09      	ldr	r2, [pc, #36]	; (272c <usbdc_reset+0x50>)
    2706:	2102      	movs	r1, #2
    2708:	2000      	movs	r0, #0
    270a:	47a0      	blx	r4
    270c:	2000      	movs	r0, #0
    270e:	4b08      	ldr	r3, [pc, #32]	; (2730 <usbdc_reset+0x54>)
    2710:	4798      	blx	r3
    2712:	bd10      	pop	{r4, pc}
    2714:	000025b5 	.word	0x000025b5
    2718:	200004fc 	.word	0x200004fc
    271c:	000007bd 	.word	0x000007bd
    2720:	000007a9 	.word	0x000007a9
    2724:	00002775 	.word	0x00002775
    2728:	000009c5 	.word	0x000009c5
    272c:	00002661 	.word	0x00002661
    2730:	000007e9 	.word	0x000007e9

00002734 <usbd_event_cb>:
    2734:	b510      	push	{r4, lr}
    2736:	2800      	cmp	r0, #0
    2738:	d002      	beq.n	2740 <usbd_event_cb+0xc>
    273a:	2801      	cmp	r0, #1
    273c:	d004      	beq.n	2748 <usbd_event_cb+0x14>
    273e:	bd10      	pop	{r4, pc}
    2740:	2000      	movs	r0, #0
    2742:	4b03      	ldr	r3, [pc, #12]	; (2750 <usbd_event_cb+0x1c>)
    2744:	4798      	blx	r3
    2746:	e7fa      	b.n	273e <usbd_event_cb+0xa>
    2748:	4b02      	ldr	r3, [pc, #8]	; (2754 <usbd_event_cb+0x20>)
    274a:	4798      	blx	r3
    274c:	e7f7      	b.n	273e <usbd_event_cb+0xa>
    274e:	46c0      	nop			; (mov r8, r8)
    2750:	000025d5 	.word	0x000025d5
    2754:	000026dd 	.word	0x000026dd

00002758 <usbdc_xfer>:
    2758:	b510      	push	{r4, lr}
    275a:	b084      	sub	sp, #16
    275c:	ac01      	add	r4, sp, #4
    275e:	9101      	str	r1, [sp, #4]
    2760:	9202      	str	r2, [sp, #8]
    2762:	7220      	strb	r0, [r4, #8]
    2764:	7263      	strb	r3, [r4, #9]
    2766:	0020      	movs	r0, r4
    2768:	4b01      	ldr	r3, [pc, #4]	; (2770 <usbdc_xfer+0x18>)
    276a:	4798      	blx	r3
    276c:	b004      	add	sp, #16
    276e:	bd10      	pop	{r4, pc}
    2770:	00000835 	.word	0x00000835

00002774 <usbdc_cb_ctl_req>:
    2774:	b5f0      	push	{r4, r5, r6, r7, lr}
    2776:	46c6      	mov	lr, r8
    2778:	b500      	push	{lr}
    277a:	b084      	sub	sp, #16
    277c:	0005      	movs	r5, r0
    277e:	000c      	movs	r4, r1
    2780:	2200      	movs	r2, #0
    2782:	4bb5      	ldr	r3, [pc, #724]	; (2a58 <usbdc_cb_ctl_req+0x2e4>)
    2784:	4798      	blx	r3
    2786:	1c43      	adds	r3, r0, #1
    2788:	d00d      	beq.n	27a6 <usbdc_cb_ctl_req+0x32>
    278a:	2301      	movs	r3, #1
    278c:	2801      	cmp	r0, #1
    278e:	d00b      	beq.n	27a8 <usbdc_cb_ctl_req+0x34>
    2790:	7822      	ldrb	r2, [r4, #0]
    2792:	231f      	movs	r3, #31
    2794:	0011      	movs	r1, r2
    2796:	4399      	bics	r1, r3
    2798:	d00b      	beq.n	27b2 <usbdc_cb_ctl_req+0x3e>
    279a:	b2cb      	uxtb	r3, r1
    279c:	2b80      	cmp	r3, #128	; 0x80
    279e:	d100      	bne.n	27a2 <usbdc_cb_ctl_req+0x2e>
    27a0:	e0f8      	b.n	2994 <usbdc_cb_ctl_req+0x220>
    27a2:	2300      	movs	r3, #0
    27a4:	e000      	b.n	27a8 <usbdc_cb_ctl_req+0x34>
    27a6:	2300      	movs	r3, #0
    27a8:	0018      	movs	r0, r3
    27aa:	b004      	add	sp, #16
    27ac:	bc04      	pop	{r2}
    27ae:	4690      	mov	r8, r2
    27b0:	bdf0      	pop	{r4, r5, r6, r7, pc}
    27b2:	7863      	ldrb	r3, [r4, #1]
    27b4:	2b0b      	cmp	r3, #11
    27b6:	d900      	bls.n	27ba <usbdc_cb_ctl_req+0x46>
    27b8:	e1e4      	b.n	2b84 <usbdc_cb_ctl_req+0x410>
    27ba:	009b      	lsls	r3, r3, #2
    27bc:	49a7      	ldr	r1, [pc, #668]	; (2a5c <usbdc_cb_ctl_req+0x2e8>)
    27be:	58cb      	ldr	r3, [r1, r3]
    27c0:	469f      	mov	pc, r3
    27c2:	2301      	movs	r3, #1
    27c4:	2200      	movs	r2, #0
    27c6:	2100      	movs	r1, #0
    27c8:	0028      	movs	r0, r5
    27ca:	4ca5      	ldr	r4, [pc, #660]	; (2a60 <usbdc_cb_ctl_req+0x2ec>)
    27cc:	47a0      	blx	r4
    27ce:	4243      	negs	r3, r0
    27d0:	4143      	adcs	r3, r0
    27d2:	b2db      	uxtb	r3, r3
    27d4:	e7e8      	b.n	27a8 <usbdc_cb_ctl_req+0x34>
    27d6:	78a2      	ldrb	r2, [r4, #2]
    27d8:	2a00      	cmp	r2, #0
    27da:	d01a      	beq.n	2812 <usbdc_cb_ctl_req+0x9e>
    27dc:	4ba1      	ldr	r3, [pc, #644]	; (2a64 <usbdc_cb_ctl_req+0x2f0>)
    27de:	681b      	ldr	r3, [r3, #0]
    27e0:	6859      	ldr	r1, [r3, #4]
    27e2:	6818      	ldr	r0, [r3, #0]
    27e4:	4ba0      	ldr	r3, [pc, #640]	; (2a68 <usbdc_cb_ctl_req+0x2f4>)
    27e6:	4798      	blx	r3
    27e8:	2800      	cmp	r0, #0
    27ea:	d100      	bne.n	27ee <usbdc_cb_ctl_req+0x7a>
    27ec:	e1d4      	b.n	2b98 <usbdc_cb_ctl_req+0x424>
    27ee:	78c3      	ldrb	r3, [r0, #3]
    27f0:	021b      	lsls	r3, r3, #8
    27f2:	7881      	ldrb	r1, [r0, #2]
    27f4:	18c9      	adds	r1, r1, r3
    27f6:	b289      	uxth	r1, r1
    27f8:	1841      	adds	r1, r0, r1
    27fa:	9103      	str	r1, [sp, #12]
    27fc:	2204      	movs	r2, #4
    27fe:	4b9b      	ldr	r3, [pc, #620]	; (2a6c <usbdc_cb_ctl_req+0x2f8>)
    2800:	4798      	blx	r3
    2802:	9002      	str	r0, [sp, #8]
    2804:	2800      	cmp	r0, #0
    2806:	d006      	beq.n	2816 <usbdc_cb_ctl_req+0xa2>
    2808:	24ff      	movs	r4, #255	; 0xff
    280a:	4f96      	ldr	r7, [pc, #600]	; (2a64 <usbdc_cb_ctl_req+0x2f0>)
    280c:	4b97      	ldr	r3, [pc, #604]	; (2a6c <usbdc_cb_ctl_req+0x2f8>)
    280e:	4698      	mov	r8, r3
    2810:	e01a      	b.n	2848 <usbdc_cb_ctl_req+0xd4>
    2812:	4b97      	ldr	r3, [pc, #604]	; (2a70 <usbdc_cb_ctl_req+0x2fc>)
    2814:	4798      	blx	r3
    2816:	2301      	movs	r3, #1
    2818:	2200      	movs	r2, #0
    281a:	2100      	movs	r1, #0
    281c:	0028      	movs	r0, r5
    281e:	4c90      	ldr	r4, [pc, #576]	; (2a60 <usbdc_cb_ctl_req+0x2ec>)
    2820:	47a0      	blx	r4
    2822:	4243      	negs	r3, r0
    2824:	4143      	adcs	r3, r0
    2826:	b2db      	uxtb	r3, r3
    2828:	e7be      	b.n	27a8 <usbdc_cb_ctl_req+0x34>
    282a:	0034      	movs	r4, r6
    282c:	e000      	b.n	2830 <usbdc_cb_ctl_req+0xbc>
    282e:	0034      	movs	r4, r6
    2830:	9802      	ldr	r0, [sp, #8]
    2832:	7803      	ldrb	r3, [r0, #0]
    2834:	18c0      	adds	r0, r0, r3
    2836:	9002      	str	r0, [sp, #8]
    2838:	9b03      	ldr	r3, [sp, #12]
    283a:	9301      	str	r3, [sp, #4]
    283c:	2204      	movs	r2, #4
    283e:	0019      	movs	r1, r3
    2840:	47c0      	blx	r8
    2842:	9002      	str	r0, [sp, #8]
    2844:	2800      	cmp	r0, #0
    2846:	d0e6      	beq.n	2816 <usbdc_cb_ctl_req+0xa2>
    2848:	7886      	ldrb	r6, [r0, #2]
    284a:	42a6      	cmp	r6, r4
    284c:	d0f0      	beq.n	2830 <usbdc_cb_ctl_req+0xbc>
    284e:	693c      	ldr	r4, [r7, #16]
    2850:	2c00      	cmp	r4, #0
    2852:	d0ea      	beq.n	282a <usbdc_cb_ctl_req+0xb6>
    2854:	aa02      	add	r2, sp, #8
    2856:	2100      	movs	r1, #0
    2858:	0020      	movs	r0, r4
    285a:	6863      	ldr	r3, [r4, #4]
    285c:	4798      	blx	r3
    285e:	2800      	cmp	r0, #0
    2860:	d0e5      	beq.n	282e <usbdc_cb_ctl_req+0xba>
    2862:	6824      	ldr	r4, [r4, #0]
    2864:	2c00      	cmp	r4, #0
    2866:	d1f5      	bne.n	2854 <usbdc_cb_ctl_req+0xe0>
    2868:	0034      	movs	r4, r6
    286a:	e7e1      	b.n	2830 <usbdc_cb_ctl_req+0xbc>
    286c:	231f      	movs	r3, #31
    286e:	401a      	ands	r2, r3
    2870:	2300      	movs	r3, #0
    2872:	2a02      	cmp	r2, #2
    2874:	d198      	bne.n	27a8 <usbdc_cb_ctl_req+0x34>
    2876:	79a3      	ldrb	r3, [r4, #6]
    2878:	79e2      	ldrb	r2, [r4, #7]
    287a:	0212      	lsls	r2, r2, #8
    287c:	431a      	orrs	r2, r3
    287e:	2300      	movs	r3, #0
    2880:	2a00      	cmp	r2, #0
    2882:	d000      	beq.n	2886 <usbdc_cb_ctl_req+0x112>
    2884:	e790      	b.n	27a8 <usbdc_cb_ctl_req+0x34>
    2886:	7920      	ldrb	r0, [r4, #4]
    2888:	2100      	movs	r1, #0
    288a:	4b7a      	ldr	r3, [pc, #488]	; (2a74 <usbdc_cb_ctl_req+0x300>)
    288c:	4798      	blx	r3
    288e:	2301      	movs	r3, #1
    2890:	2200      	movs	r2, #0
    2892:	2100      	movs	r1, #0
    2894:	0028      	movs	r0, r5
    2896:	4c72      	ldr	r4, [pc, #456]	; (2a60 <usbdc_cb_ctl_req+0x2ec>)
    2898:	47a0      	blx	r4
    289a:	2301      	movs	r3, #1
    289c:	e784      	b.n	27a8 <usbdc_cb_ctl_req+0x34>
    289e:	231f      	movs	r3, #31
    28a0:	401a      	ands	r2, r3
    28a2:	2300      	movs	r3, #0
    28a4:	2a02      	cmp	r2, #2
    28a6:	d000      	beq.n	28aa <usbdc_cb_ctl_req+0x136>
    28a8:	e77e      	b.n	27a8 <usbdc_cb_ctl_req+0x34>
    28aa:	79a3      	ldrb	r3, [r4, #6]
    28ac:	79e2      	ldrb	r2, [r4, #7]
    28ae:	0212      	lsls	r2, r2, #8
    28b0:	431a      	orrs	r2, r3
    28b2:	2300      	movs	r3, #0
    28b4:	2a00      	cmp	r2, #0
    28b6:	d000      	beq.n	28ba <usbdc_cb_ctl_req+0x146>
    28b8:	e776      	b.n	27a8 <usbdc_cb_ctl_req+0x34>
    28ba:	7920      	ldrb	r0, [r4, #4]
    28bc:	2101      	movs	r1, #1
    28be:	4b6d      	ldr	r3, [pc, #436]	; (2a74 <usbdc_cb_ctl_req+0x300>)
    28c0:	4798      	blx	r3
    28c2:	2301      	movs	r3, #1
    28c4:	2200      	movs	r2, #0
    28c6:	2100      	movs	r1, #0
    28c8:	0028      	movs	r0, r5
    28ca:	4c65      	ldr	r4, [pc, #404]	; (2a60 <usbdc_cb_ctl_req+0x2ec>)
    28cc:	47a0      	blx	r4
    28ce:	2301      	movs	r3, #1
    28d0:	e76a      	b.n	27a8 <usbdc_cb_ctl_req+0x34>
    28d2:	78a3      	ldrb	r3, [r4, #2]
    28d4:	78e5      	ldrb	r5, [r4, #3]
    28d6:	022d      	lsls	r5, r5, #8
    28d8:	431d      	orrs	r5, r3
    28da:	7923      	ldrb	r3, [r4, #4]
    28dc:	7964      	ldrb	r4, [r4, #5]
    28de:	0224      	lsls	r4, r4, #8
    28e0:	431c      	orrs	r4, r3
    28e2:	4a60      	ldr	r2, [pc, #384]	; (2a64 <usbdc_cb_ctl_req+0x2f0>)
    28e4:	6813      	ldr	r3, [r2, #0]
    28e6:	7ed2      	ldrb	r2, [r2, #27]
    28e8:	6859      	ldr	r1, [r3, #4]
    28ea:	6818      	ldr	r0, [r3, #0]
    28ec:	4b5e      	ldr	r3, [pc, #376]	; (2a68 <usbdc_cb_ctl_req+0x2f4>)
    28ee:	4798      	blx	r3
    28f0:	2800      	cmp	r0, #0
    28f2:	d047      	beq.n	2984 <usbdc_cb_ctl_req+0x210>
    28f4:	9002      	str	r0, [sp, #8]
    28f6:	78c3      	ldrb	r3, [r0, #3]
    28f8:	021b      	lsls	r3, r3, #8
    28fa:	7881      	ldrb	r1, [r0, #2]
    28fc:	18c9      	adds	r1, r1, r3
    28fe:	b289      	uxth	r1, r1
    2900:	1841      	adds	r1, r0, r1
    2902:	9103      	str	r1, [sp, #12]
    2904:	2204      	movs	r2, #4
    2906:	4b59      	ldr	r3, [pc, #356]	; (2a6c <usbdc_cb_ctl_req+0x2f8>)
    2908:	4798      	blx	r3
    290a:	2800      	cmp	r0, #0
    290c:	d03c      	beq.n	2988 <usbdc_cb_ctl_req+0x214>
    290e:	4e57      	ldr	r6, [pc, #348]	; (2a6c <usbdc_cb_ctl_req+0x2f8>)
    2910:	e008      	b.n	2924 <usbdc_cb_ctl_req+0x1b0>
    2912:	9802      	ldr	r0, [sp, #8]
    2914:	7803      	ldrb	r3, [r0, #0]
    2916:	18c0      	adds	r0, r0, r3
    2918:	9002      	str	r0, [sp, #8]
    291a:	2204      	movs	r2, #4
    291c:	9903      	ldr	r1, [sp, #12]
    291e:	47b0      	blx	r6
    2920:	2800      	cmp	r0, #0
    2922:	d033      	beq.n	298c <usbdc_cb_ctl_req+0x218>
    2924:	7883      	ldrb	r3, [r0, #2]
    2926:	42a3      	cmp	r3, r4
    2928:	d1f3      	bne.n	2912 <usbdc_cb_ctl_req+0x19e>
    292a:	78c3      	ldrb	r3, [r0, #3]
    292c:	42ab      	cmp	r3, r5
    292e:	d1f0      	bne.n	2912 <usbdc_cb_ctl_req+0x19e>
    2930:	9002      	str	r0, [sp, #8]
    2932:	4b4c      	ldr	r3, [pc, #304]	; (2a64 <usbdc_cb_ctl_req+0x2f0>)
    2934:	691e      	ldr	r6, [r3, #16]
    2936:	2e00      	cmp	r6, #0
    2938:	d02a      	beq.n	2990 <usbdc_cb_ctl_req+0x21c>
    293a:	aa02      	add	r2, sp, #8
    293c:	2101      	movs	r1, #1
    293e:	0030      	movs	r0, r6
    2940:	6873      	ldr	r3, [r6, #4]
    2942:	4798      	blx	r3
    2944:	2800      	cmp	r0, #0
    2946:	d004      	beq.n	2952 <usbdc_cb_ctl_req+0x1de>
    2948:	6836      	ldr	r6, [r6, #0]
    294a:	2e00      	cmp	r6, #0
    294c:	d1f5      	bne.n	293a <usbdc_cb_ctl_req+0x1c6>
    294e:	2300      	movs	r3, #0
    2950:	e72a      	b.n	27a8 <usbdc_cb_ctl_req+0x34>
    2952:	6873      	ldr	r3, [r6, #4]
    2954:	aa02      	add	r2, sp, #8
    2956:	2100      	movs	r1, #0
    2958:	0030      	movs	r0, r6
    295a:	4798      	blx	r3
    295c:	2300      	movs	r3, #0
    295e:	2800      	cmp	r0, #0
    2960:	d000      	beq.n	2964 <usbdc_cb_ctl_req+0x1f0>
    2962:	e721      	b.n	27a8 <usbdc_cb_ctl_req+0x34>
    2964:	2d00      	cmp	r5, #0
    2966:	d005      	beq.n	2974 <usbdc_cb_ctl_req+0x200>
    2968:	493e      	ldr	r1, [pc, #248]	; (2a64 <usbdc_cb_ctl_req+0x2f0>)
    296a:	2201      	movs	r2, #1
    296c:	40a2      	lsls	r2, r4
    296e:	7f4b      	ldrb	r3, [r1, #29]
    2970:	4313      	orrs	r3, r2
    2972:	774b      	strb	r3, [r1, #29]
    2974:	2300      	movs	r3, #0
    2976:	2200      	movs	r2, #0
    2978:	2100      	movs	r1, #0
    297a:	2000      	movs	r0, #0
    297c:	4c38      	ldr	r4, [pc, #224]	; (2a60 <usbdc_cb_ctl_req+0x2ec>)
    297e:	47a0      	blx	r4
    2980:	2301      	movs	r3, #1
    2982:	e711      	b.n	27a8 <usbdc_cb_ctl_req+0x34>
    2984:	2300      	movs	r3, #0
    2986:	e70f      	b.n	27a8 <usbdc_cb_ctl_req+0x34>
    2988:	2300      	movs	r3, #0
    298a:	e70d      	b.n	27a8 <usbdc_cb_ctl_req+0x34>
    298c:	2300      	movs	r3, #0
    298e:	e70b      	b.n	27a8 <usbdc_cb_ctl_req+0x34>
    2990:	2300      	movs	r3, #0
    2992:	e709      	b.n	27a8 <usbdc_cb_ctl_req+0x34>
    2994:	7863      	ldrb	r3, [r4, #1]
    2996:	2b06      	cmp	r3, #6
    2998:	d033      	beq.n	2a02 <usbdc_cb_ctl_req+0x28e>
    299a:	b2d9      	uxtb	r1, r3
    299c:	2906      	cmp	r1, #6
    299e:	d922      	bls.n	29e6 <usbdc_cb_ctl_req+0x272>
    29a0:	2b08      	cmp	r3, #8
    29a2:	d100      	bne.n	29a6 <usbdc_cb_ctl_req+0x232>
    29a4:	e0af      	b.n	2b06 <usbdc_cb_ctl_req+0x392>
    29a6:	2b0a      	cmp	r3, #10
    29a8:	d000      	beq.n	29ac <usbdc_cb_ctl_req+0x238>
    29aa:	e0ed      	b.n	2b88 <usbdc_cb_ctl_req+0x414>
    29ac:	4b2d      	ldr	r3, [pc, #180]	; (2a64 <usbdc_cb_ctl_req+0x2f0>)
    29ae:	7f5a      	ldrb	r2, [r3, #29]
    29b0:	7921      	ldrb	r1, [r4, #4]
    29b2:	7963      	ldrb	r3, [r4, #5]
    29b4:	021b      	lsls	r3, r3, #8
    29b6:	430b      	orrs	r3, r1
    29b8:	411a      	asrs	r2, r3
    29ba:	07d3      	lsls	r3, r2, #31
    29bc:	d400      	bmi.n	29c0 <usbdc_cb_ctl_req+0x24c>
    29be:	e0ca      	b.n	2b56 <usbdc_cb_ctl_req+0x3e2>
    29c0:	4b28      	ldr	r3, [pc, #160]	; (2a64 <usbdc_cb_ctl_req+0x2f0>)
    29c2:	691d      	ldr	r5, [r3, #16]
    29c4:	2300      	movs	r3, #0
    29c6:	2d00      	cmp	r5, #0
    29c8:	d100      	bne.n	29cc <usbdc_cb_ctl_req+0x258>
    29ca:	e6ed      	b.n	27a8 <usbdc_cb_ctl_req+0x34>
    29cc:	0022      	movs	r2, r4
    29ce:	2102      	movs	r1, #2
    29d0:	0028      	movs	r0, r5
    29d2:	686b      	ldr	r3, [r5, #4]
    29d4:	4798      	blx	r3
    29d6:	2800      	cmp	r0, #0
    29d8:	db00      	blt.n	29dc <usbdc_cb_ctl_req+0x268>
    29da:	e0c8      	b.n	2b6e <usbdc_cb_ctl_req+0x3fa>
    29dc:	682d      	ldr	r5, [r5, #0]
    29de:	2d00      	cmp	r5, #0
    29e0:	d1f4      	bne.n	29cc <usbdc_cb_ctl_req+0x258>
    29e2:	2300      	movs	r3, #0
    29e4:	e6e0      	b.n	27a8 <usbdc_cb_ctl_req+0x34>
    29e6:	2b00      	cmp	r3, #0
    29e8:	d000      	beq.n	29ec <usbdc_cb_ctl_req+0x278>
    29ea:	e0cd      	b.n	2b88 <usbdc_cb_ctl_req+0x414>
    29ec:	231f      	movs	r3, #31
    29ee:	401a      	ands	r2, r3
    29f0:	b2d3      	uxtb	r3, r2
    29f2:	2b01      	cmp	r3, #1
    29f4:	d800      	bhi.n	29f8 <usbdc_cb_ctl_req+0x284>
    29f6:	e092      	b.n	2b1e <usbdc_cb_ctl_req+0x3aa>
    29f8:	2a02      	cmp	r2, #2
    29fa:	d100      	bne.n	29fe <usbdc_cb_ctl_req+0x28a>
    29fc:	e09f      	b.n	2b3e <usbdc_cb_ctl_req+0x3ca>
    29fe:	2300      	movs	r3, #0
    2a00:	e6d2      	b.n	27a8 <usbdc_cb_ctl_req+0x34>
    2a02:	78a3      	ldrb	r3, [r4, #2]
    2a04:	78e2      	ldrb	r2, [r4, #3]
    2a06:	0212      	lsls	r2, r2, #8
    2a08:	431a      	orrs	r2, r3
    2a0a:	0a13      	lsrs	r3, r2, #8
    2a0c:	2b02      	cmp	r3, #2
    2a0e:	d033      	beq.n	2a78 <usbdc_cb_ctl_req+0x304>
    2a10:	2b03      	cmp	r3, #3
    2a12:	d056      	beq.n	2ac2 <usbdc_cb_ctl_req+0x34e>
    2a14:	2b01      	cmp	r3, #1
    2a16:	d001      	beq.n	2a1c <usbdc_cb_ctl_req+0x2a8>
    2a18:	2300      	movs	r3, #0
    2a1a:	e6c5      	b.n	27a8 <usbdc_cb_ctl_req+0x34>
    2a1c:	79a2      	ldrb	r2, [r4, #6]
    2a1e:	79e3      	ldrb	r3, [r4, #7]
    2a20:	021b      	lsls	r3, r3, #8
    2a22:	4313      	orrs	r3, r2
    2a24:	1c1a      	adds	r2, r3, #0
    2a26:	2b12      	cmp	r3, #18
    2a28:	d900      	bls.n	2a2c <usbdc_cb_ctl_req+0x2b8>
    2a2a:	2212      	movs	r2, #18
    2a2c:	b294      	uxth	r4, r2
    2a2e:	4b0d      	ldr	r3, [pc, #52]	; (2a64 <usbdc_cb_ctl_req+0x2f0>)
    2a30:	681b      	ldr	r3, [r3, #0]
    2a32:	6859      	ldr	r1, [r3, #4]
    2a34:	6818      	ldr	r0, [r3, #0]
    2a36:	2201      	movs	r2, #1
    2a38:	4b0c      	ldr	r3, [pc, #48]	; (2a6c <usbdc_cb_ctl_req+0x2f8>)
    2a3a:	4798      	blx	r3
    2a3c:	2800      	cmp	r0, #0
    2a3e:	d100      	bne.n	2a42 <usbdc_cb_ctl_req+0x2ce>
    2a40:	e0a4      	b.n	2b8c <usbdc_cb_ctl_req+0x418>
    2a42:	2300      	movs	r3, #0
    2a44:	0022      	movs	r2, r4
    2a46:	0001      	movs	r1, r0
    2a48:	0028      	movs	r0, r5
    2a4a:	4c05      	ldr	r4, [pc, #20]	; (2a60 <usbdc_cb_ctl_req+0x2ec>)
    2a4c:	47a0      	blx	r4
    2a4e:	4243      	negs	r3, r0
    2a50:	4143      	adcs	r3, r0
    2a52:	b2db      	uxtb	r3, r3
    2a54:	e6a8      	b.n	27a8 <usbdc_cb_ctl_req+0x34>
    2a56:	46c0      	nop			; (mov r8, r8)
    2a58:	000025fd 	.word	0x000025fd
    2a5c:	00003f78 	.word	0x00003f78
    2a60:	00002759 	.word	0x00002759
    2a64:	200004fc 	.word	0x200004fc
    2a68:	00002d41 	.word	0x00002d41
    2a6c:	00002cc5 	.word	0x00002cc5
    2a70:	000025b5 	.word	0x000025b5
    2a74:	0000095d 	.word	0x0000095d
    2a78:	79a3      	ldrb	r3, [r4, #6]
    2a7a:	79e6      	ldrb	r6, [r4, #7]
    2a7c:	0236      	lsls	r6, r6, #8
    2a7e:	431e      	orrs	r6, r3
    2a80:	4b46      	ldr	r3, [pc, #280]	; (2b9c <usbdc_cb_ctl_req+0x428>)
    2a82:	7f1f      	ldrb	r7, [r3, #28]
    2a84:	681b      	ldr	r3, [r3, #0]
    2a86:	3201      	adds	r2, #1
    2a88:	b2d2      	uxtb	r2, r2
    2a8a:	6859      	ldr	r1, [r3, #4]
    2a8c:	6818      	ldr	r0, [r3, #0]
    2a8e:	4b44      	ldr	r3, [pc, #272]	; (2ba0 <usbdc_cb_ctl_req+0x42c>)
    2a90:	4798      	blx	r3
    2a92:	1e01      	subs	r1, r0, #0
    2a94:	d07c      	beq.n	2b90 <usbdc_cb_ctl_req+0x41c>
    2a96:	78c3      	ldrb	r3, [r0, #3]
    2a98:	021b      	lsls	r3, r3, #8
    2a9a:	7884      	ldrb	r4, [r0, #2]
    2a9c:	18e4      	adds	r4, r4, r3
    2a9e:	b2a4      	uxth	r4, r4
    2aa0:	2300      	movs	r3, #0
    2aa2:	42a6      	cmp	r6, r4
    2aa4:	d905      	bls.n	2ab2 <usbdc_cb_ctl_req+0x33e>
    2aa6:	3f01      	subs	r7, #1
    2aa8:	403e      	ands	r6, r7
    2aaa:	4273      	negs	r3, r6
    2aac:	4173      	adcs	r3, r6
    2aae:	b2db      	uxtb	r3, r3
    2ab0:	0026      	movs	r6, r4
    2ab2:	0032      	movs	r2, r6
    2ab4:	0028      	movs	r0, r5
    2ab6:	4c3b      	ldr	r4, [pc, #236]	; (2ba4 <usbdc_cb_ctl_req+0x430>)
    2ab8:	47a0      	blx	r4
    2aba:	4243      	negs	r3, r0
    2abc:	4143      	adcs	r3, r0
    2abe:	b2db      	uxtb	r3, r3
    2ac0:	e672      	b.n	27a8 <usbdc_cb_ctl_req+0x34>
    2ac2:	79a3      	ldrb	r3, [r4, #6]
    2ac4:	79e1      	ldrb	r1, [r4, #7]
    2ac6:	0209      	lsls	r1, r1, #8
    2ac8:	4319      	orrs	r1, r3
    2aca:	000c      	movs	r4, r1
    2acc:	4b33      	ldr	r3, [pc, #204]	; (2b9c <usbdc_cb_ctl_req+0x428>)
    2ace:	7f1e      	ldrb	r6, [r3, #28]
    2ad0:	681b      	ldr	r3, [r3, #0]
    2ad2:	b2d2      	uxtb	r2, r2
    2ad4:	6859      	ldr	r1, [r3, #4]
    2ad6:	6818      	ldr	r0, [r3, #0]
    2ad8:	4b33      	ldr	r3, [pc, #204]	; (2ba8 <usbdc_cb_ctl_req+0x434>)
    2ada:	4798      	blx	r3
    2adc:	1e01      	subs	r1, r0, #0
    2ade:	d059      	beq.n	2b94 <usbdc_cb_ctl_req+0x420>
    2ae0:	7802      	ldrb	r2, [r0, #0]
    2ae2:	2300      	movs	r3, #0
    2ae4:	4294      	cmp	r4, r2
    2ae6:	d906      	bls.n	2af6 <usbdc_cb_ctl_req+0x382>
    2ae8:	1e73      	subs	r3, r6, #1
    2aea:	4023      	ands	r3, r4
    2aec:	0018      	movs	r0, r3
    2aee:	4243      	negs	r3, r0
    2af0:	4143      	adcs	r3, r0
    2af2:	b2db      	uxtb	r3, r3
    2af4:	0014      	movs	r4, r2
    2af6:	0022      	movs	r2, r4
    2af8:	0028      	movs	r0, r5
    2afa:	4c2a      	ldr	r4, [pc, #168]	; (2ba4 <usbdc_cb_ctl_req+0x430>)
    2afc:	47a0      	blx	r4
    2afe:	4243      	negs	r3, r0
    2b00:	4143      	adcs	r3, r0
    2b02:	b2db      	uxtb	r3, r3
    2b04:	e650      	b.n	27a8 <usbdc_cb_ctl_req+0x34>
    2b06:	4b25      	ldr	r3, [pc, #148]	; (2b9c <usbdc_cb_ctl_req+0x428>)
    2b08:	7eda      	ldrb	r2, [r3, #27]
    2b0a:	6959      	ldr	r1, [r3, #20]
    2b0c:	700a      	strb	r2, [r1, #0]
    2b0e:	6959      	ldr	r1, [r3, #20]
    2b10:	2300      	movs	r3, #0
    2b12:	2201      	movs	r2, #1
    2b14:	0028      	movs	r0, r5
    2b16:	4c23      	ldr	r4, [pc, #140]	; (2ba4 <usbdc_cb_ctl_req+0x430>)
    2b18:	47a0      	blx	r4
    2b1a:	2301      	movs	r3, #1
    2b1c:	e644      	b.n	27a8 <usbdc_cb_ctl_req+0x34>
    2b1e:	2300      	movs	r3, #0
    2b20:	9302      	str	r3, [sp, #8]
    2b22:	4c1e      	ldr	r4, [pc, #120]	; (2b9c <usbdc_cb_ctl_req+0x428>)
    2b24:	2202      	movs	r2, #2
    2b26:	a902      	add	r1, sp, #8
    2b28:	6960      	ldr	r0, [r4, #20]
    2b2a:	4b20      	ldr	r3, [pc, #128]	; (2bac <usbdc_cb_ctl_req+0x438>)
    2b2c:	4798      	blx	r3
    2b2e:	6961      	ldr	r1, [r4, #20]
    2b30:	2300      	movs	r3, #0
    2b32:	2202      	movs	r2, #2
    2b34:	0028      	movs	r0, r5
    2b36:	4c1b      	ldr	r4, [pc, #108]	; (2ba4 <usbdc_cb_ctl_req+0x430>)
    2b38:	47a0      	blx	r4
    2b3a:	2301      	movs	r3, #1
    2b3c:	e634      	b.n	27a8 <usbdc_cb_ctl_req+0x34>
    2b3e:	7920      	ldrb	r0, [r4, #4]
    2b40:	2102      	movs	r1, #2
    2b42:	4b1b      	ldr	r3, [pc, #108]	; (2bb0 <usbdc_cb_ctl_req+0x43c>)
    2b44:	4798      	blx	r3
    2b46:	2800      	cmp	r0, #0
    2b48:	db03      	blt.n	2b52 <usbdc_cb_ctl_req+0x3de>
    2b4a:	2301      	movs	r3, #1
    2b4c:	4018      	ands	r0, r3
    2b4e:	9002      	str	r0, [sp, #8]
    2b50:	e7e7      	b.n	2b22 <usbdc_cb_ctl_req+0x3ae>
    2b52:	2300      	movs	r3, #0
    2b54:	e628      	b.n	27a8 <usbdc_cb_ctl_req+0x34>
    2b56:	4b11      	ldr	r3, [pc, #68]	; (2b9c <usbdc_cb_ctl_req+0x428>)
    2b58:	2200      	movs	r2, #0
    2b5a:	6959      	ldr	r1, [r3, #20]
    2b5c:	700a      	strb	r2, [r1, #0]
    2b5e:	6959      	ldr	r1, [r3, #20]
    2b60:	2300      	movs	r3, #0
    2b62:	3201      	adds	r2, #1
    2b64:	2000      	movs	r0, #0
    2b66:	4c0f      	ldr	r4, [pc, #60]	; (2ba4 <usbdc_cb_ctl_req+0x430>)
    2b68:	47a0      	blx	r4
    2b6a:	2301      	movs	r3, #1
    2b6c:	e61c      	b.n	27a8 <usbdc_cb_ctl_req+0x34>
    2b6e:	4b0b      	ldr	r3, [pc, #44]	; (2b9c <usbdc_cb_ctl_req+0x428>)
    2b70:	695a      	ldr	r2, [r3, #20]
    2b72:	7010      	strb	r0, [r2, #0]
    2b74:	6959      	ldr	r1, [r3, #20]
    2b76:	2300      	movs	r3, #0
    2b78:	2201      	movs	r2, #1
    2b7a:	2000      	movs	r0, #0
    2b7c:	4c09      	ldr	r4, [pc, #36]	; (2ba4 <usbdc_cb_ctl_req+0x430>)
    2b7e:	47a0      	blx	r4
    2b80:	2301      	movs	r3, #1
    2b82:	e611      	b.n	27a8 <usbdc_cb_ctl_req+0x34>
    2b84:	2300      	movs	r3, #0
    2b86:	e60f      	b.n	27a8 <usbdc_cb_ctl_req+0x34>
    2b88:	2300      	movs	r3, #0
    2b8a:	e60d      	b.n	27a8 <usbdc_cb_ctl_req+0x34>
    2b8c:	2300      	movs	r3, #0
    2b8e:	e60b      	b.n	27a8 <usbdc_cb_ctl_req+0x34>
    2b90:	2300      	movs	r3, #0
    2b92:	e609      	b.n	27a8 <usbdc_cb_ctl_req+0x34>
    2b94:	2300      	movs	r3, #0
    2b96:	e607      	b.n	27a8 <usbdc_cb_ctl_req+0x34>
    2b98:	2300      	movs	r3, #0
    2b9a:	e605      	b.n	27a8 <usbdc_cb_ctl_req+0x34>
    2b9c:	200004fc 	.word	0x200004fc
    2ba0:	00002d41 	.word	0x00002d41
    2ba4:	00002759 	.word	0x00002759
    2ba8:	00002da9 	.word	0x00002da9
    2bac:	000034c1 	.word	0x000034c1
    2bb0:	0000095d 	.word	0x0000095d

00002bb4 <usbdc_register_handler>:
    2bb4:	b510      	push	{r4, lr}
    2bb6:	2801      	cmp	r0, #1
    2bb8:	d009      	beq.n	2bce <usbdc_register_handler+0x1a>
    2bba:	2800      	cmp	r0, #0
    2bbc:	d002      	beq.n	2bc4 <usbdc_register_handler+0x10>
    2bbe:	2802      	cmp	r0, #2
    2bc0:	d00a      	beq.n	2bd8 <usbdc_register_handler+0x24>
    2bc2:	bd10      	pop	{r4, pc}
    2bc4:	4807      	ldr	r0, [pc, #28]	; (2be4 <usbdc_register_handler+0x30>)
    2bc6:	3004      	adds	r0, #4
    2bc8:	4b07      	ldr	r3, [pc, #28]	; (2be8 <usbdc_register_handler+0x34>)
    2bca:	4798      	blx	r3
    2bcc:	e7f9      	b.n	2bc2 <usbdc_register_handler+0xe>
    2bce:	4805      	ldr	r0, [pc, #20]	; (2be4 <usbdc_register_handler+0x30>)
    2bd0:	3008      	adds	r0, #8
    2bd2:	4b05      	ldr	r3, [pc, #20]	; (2be8 <usbdc_register_handler+0x34>)
    2bd4:	4798      	blx	r3
    2bd6:	e7f4      	b.n	2bc2 <usbdc_register_handler+0xe>
    2bd8:	4802      	ldr	r0, [pc, #8]	; (2be4 <usbdc_register_handler+0x30>)
    2bda:	300c      	adds	r0, #12
    2bdc:	4b02      	ldr	r3, [pc, #8]	; (2be8 <usbdc_register_handler+0x34>)
    2bde:	4798      	blx	r3
    2be0:	e7ef      	b.n	2bc2 <usbdc_register_handler+0xe>
    2be2:	46c0      	nop			; (mov r8, r8)
    2be4:	200004fc 	.word	0x200004fc
    2be8:	00000a41 	.word	0x00000a41

00002bec <usbdc_init>:
    2bec:	b570      	push	{r4, r5, r6, lr}
    2bee:	0004      	movs	r4, r0
    2bf0:	1e43      	subs	r3, r0, #1
    2bf2:	4198      	sbcs	r0, r3
    2bf4:	b2c0      	uxtb	r0, r0
    2bf6:	4a0c      	ldr	r2, [pc, #48]	; (2c28 <usbdc_init+0x3c>)
    2bf8:	490c      	ldr	r1, [pc, #48]	; (2c2c <usbdc_init+0x40>)
    2bfa:	4b0d      	ldr	r3, [pc, #52]	; (2c30 <usbdc_init+0x44>)
    2bfc:	4798      	blx	r3
    2bfe:	4b0d      	ldr	r3, [pc, #52]	; (2c34 <usbdc_init+0x48>)
    2c00:	4798      	blx	r3
    2c02:	2800      	cmp	r0, #0
    2c04:	db0e      	blt.n	2c24 <usbdc_init+0x38>
    2c06:	4d0c      	ldr	r5, [pc, #48]	; (2c38 <usbdc_init+0x4c>)
    2c08:	2220      	movs	r2, #32
    2c0a:	2100      	movs	r1, #0
    2c0c:	0028      	movs	r0, r5
    2c0e:	4b0b      	ldr	r3, [pc, #44]	; (2c3c <usbdc_init+0x50>)
    2c10:	4798      	blx	r3
    2c12:	616c      	str	r4, [r5, #20]
    2c14:	490a      	ldr	r1, [pc, #40]	; (2c40 <usbdc_init+0x54>)
    2c16:	2000      	movs	r0, #0
    2c18:	4c0a      	ldr	r4, [pc, #40]	; (2c44 <usbdc_init+0x58>)
    2c1a:	47a0      	blx	r4
    2c1c:	490a      	ldr	r1, [pc, #40]	; (2c48 <usbdc_init+0x5c>)
    2c1e:	2001      	movs	r0, #1
    2c20:	47a0      	blx	r4
    2c22:	2000      	movs	r0, #0
    2c24:	bd70      	pop	{r4, r5, r6, pc}
    2c26:	46c0      	nop			; (mov r8, r8)
    2c28:	00000355 	.word	0x00000355
    2c2c:	00003fa8 	.word	0x00003fa8
    2c30:	00000a15 	.word	0x00000a15
    2c34:	000006c1 	.word	0x000006c1
    2c38:	200004fc 	.word	0x200004fc
    2c3c:	000034d3 	.word	0x000034d3
    2c40:	00002641 	.word	0x00002641
    2c44:	00000725 	.word	0x00000725
    2c48:	00002735 	.word	0x00002735

00002c4c <usbdc_register_function>:
    2c4c:	b510      	push	{r4, lr}
    2c4e:	0001      	movs	r1, r0
    2c50:	4802      	ldr	r0, [pc, #8]	; (2c5c <usbdc_register_function+0x10>)
    2c52:	3010      	adds	r0, #16
    2c54:	4b02      	ldr	r3, [pc, #8]	; (2c60 <usbdc_register_function+0x14>)
    2c56:	4798      	blx	r3
    2c58:	bd10      	pop	{r4, pc}
    2c5a:	46c0      	nop			; (mov r8, r8)
    2c5c:	200004fc 	.word	0x200004fc
    2c60:	00000a41 	.word	0x00000a41

00002c64 <usbdc_start>:
    2c64:	b510      	push	{r4, lr}
    2c66:	4b0b      	ldr	r3, [pc, #44]	; (2c94 <usbdc_start+0x30>)
    2c68:	7e9b      	ldrb	r3, [r3, #26]
    2c6a:	2b00      	cmp	r3, #0
    2c6c:	d10c      	bne.n	2c88 <usbdc_start+0x24>
    2c6e:	2800      	cmp	r0, #0
    2c70:	d00d      	beq.n	2c8e <usbdc_start+0x2a>
    2c72:	4b08      	ldr	r3, [pc, #32]	; (2c94 <usbdc_start+0x30>)
    2c74:	6018      	str	r0, [r3, #0]
    2c76:	6802      	ldr	r2, [r0, #0]
    2c78:	79d2      	ldrb	r2, [r2, #7]
    2c7a:	771a      	strb	r2, [r3, #28]
    2c7c:	2201      	movs	r2, #1
    2c7e:	769a      	strb	r2, [r3, #26]
    2c80:	4b05      	ldr	r3, [pc, #20]	; (2c98 <usbdc_start+0x34>)
    2c82:	4798      	blx	r3
    2c84:	2000      	movs	r0, #0
    2c86:	bd10      	pop	{r4, pc}
    2c88:	2004      	movs	r0, #4
    2c8a:	4240      	negs	r0, r0
    2c8c:	e7fb      	b.n	2c86 <usbdc_start+0x22>
    2c8e:	2009      	movs	r0, #9
    2c90:	4240      	negs	r0, r0
    2c92:	e7f8      	b.n	2c86 <usbdc_start+0x22>
    2c94:	200004fc 	.word	0x200004fc
    2c98:	00000731 	.word	0x00000731

00002c9c <usbdc_attach>:
    2c9c:	b510      	push	{r4, lr}
    2c9e:	4b01      	ldr	r3, [pc, #4]	; (2ca4 <usbdc_attach+0x8>)
    2ca0:	4798      	blx	r3
    2ca2:	bd10      	pop	{r4, pc}
    2ca4:	0000073d 	.word	0x0000073d

00002ca8 <usbdc_get_ctrl_buffer>:
    2ca8:	4b01      	ldr	r3, [pc, #4]	; (2cb0 <usbdc_get_ctrl_buffer+0x8>)
    2caa:	6958      	ldr	r0, [r3, #20]
    2cac:	4770      	bx	lr
    2cae:	46c0      	nop			; (mov r8, r8)
    2cb0:	200004fc 	.word	0x200004fc

00002cb4 <usbdc_get_state>:
    2cb4:	4b02      	ldr	r3, [pc, #8]	; (2cc0 <usbdc_get_state+0xc>)
    2cb6:	7e98      	ldrb	r0, [r3, #26]
    2cb8:	06c3      	lsls	r3, r0, #27
    2cba:	d500      	bpl.n	2cbe <usbdc_get_state+0xa>
    2cbc:	2010      	movs	r0, #16
    2cbe:	4770      	bx	lr
    2cc0:	200004fc 	.word	0x200004fc

00002cc4 <usb_find_desc>:
    2cc4:	b510      	push	{r4, lr}
    2cc6:	4288      	cmp	r0, r1
    2cc8:	d211      	bcs.n	2cee <usb_find_desc+0x2a>
    2cca:	7803      	ldrb	r3, [r0, #0]
    2ccc:	2b01      	cmp	r3, #1
    2cce:	d910      	bls.n	2cf2 <usb_find_desc+0x2e>
    2cd0:	7844      	ldrb	r4, [r0, #1]
    2cd2:	4294      	cmp	r4, r2
    2cd4:	d00a      	beq.n	2cec <usb_find_desc+0x28>
    2cd6:	18c0      	adds	r0, r0, r3
    2cd8:	4281      	cmp	r1, r0
    2cda:	d906      	bls.n	2cea <usb_find_desc+0x26>
    2cdc:	7803      	ldrb	r3, [r0, #0]
    2cde:	2b01      	cmp	r3, #1
    2ce0:	d909      	bls.n	2cf6 <usb_find_desc+0x32>
    2ce2:	7844      	ldrb	r4, [r0, #1]
    2ce4:	4294      	cmp	r4, r2
    2ce6:	d1f6      	bne.n	2cd6 <usb_find_desc+0x12>
    2ce8:	e000      	b.n	2cec <usb_find_desc+0x28>
    2cea:	2000      	movs	r0, #0
    2cec:	bd10      	pop	{r4, pc}
    2cee:	2000      	movs	r0, #0
    2cf0:	e7fc      	b.n	2cec <usb_find_desc+0x28>
    2cf2:	2000      	movs	r0, #0
    2cf4:	e7fa      	b.n	2cec <usb_find_desc+0x28>
    2cf6:	2000      	movs	r0, #0
    2cf8:	e7f8      	b.n	2cec <usb_find_desc+0x28>

00002cfa <usb_find_ep_desc>:
    2cfa:	4288      	cmp	r0, r1
    2cfc:	d215      	bcs.n	2d2a <usb_find_ep_desc+0x30>
    2cfe:	7803      	ldrb	r3, [r0, #0]
    2d00:	2b01      	cmp	r3, #1
    2d02:	d914      	bls.n	2d2e <usb_find_ep_desc+0x34>
    2d04:	7842      	ldrb	r2, [r0, #1]
    2d06:	2a04      	cmp	r2, #4
    2d08:	d013      	beq.n	2d32 <usb_find_ep_desc+0x38>
    2d0a:	2a05      	cmp	r2, #5
    2d0c:	d00c      	beq.n	2d28 <usb_find_ep_desc+0x2e>
    2d0e:	18c0      	adds	r0, r0, r3
    2d10:	4281      	cmp	r1, r0
    2d12:	d908      	bls.n	2d26 <usb_find_ep_desc+0x2c>
    2d14:	7803      	ldrb	r3, [r0, #0]
    2d16:	2b01      	cmp	r3, #1
    2d18:	d90d      	bls.n	2d36 <usb_find_ep_desc+0x3c>
    2d1a:	7842      	ldrb	r2, [r0, #1]
    2d1c:	2a04      	cmp	r2, #4
    2d1e:	d00c      	beq.n	2d3a <usb_find_ep_desc+0x40>
    2d20:	2a05      	cmp	r2, #5
    2d22:	d1f4      	bne.n	2d0e <usb_find_ep_desc+0x14>
    2d24:	e000      	b.n	2d28 <usb_find_ep_desc+0x2e>
    2d26:	2000      	movs	r0, #0
    2d28:	4770      	bx	lr
    2d2a:	2000      	movs	r0, #0
    2d2c:	e7fc      	b.n	2d28 <usb_find_ep_desc+0x2e>
    2d2e:	2000      	movs	r0, #0
    2d30:	e7fa      	b.n	2d28 <usb_find_ep_desc+0x2e>
    2d32:	2000      	movs	r0, #0
    2d34:	e7f8      	b.n	2d28 <usb_find_ep_desc+0x2e>
    2d36:	2000      	movs	r0, #0
    2d38:	e7f6      	b.n	2d28 <usb_find_ep_desc+0x2e>
    2d3a:	2000      	movs	r0, #0
    2d3c:	e7f4      	b.n	2d28 <usb_find_ep_desc+0x2e>
	...

00002d40 <usb_find_cfg_desc>:
    2d40:	b570      	push	{r4, r5, r6, lr}
    2d42:	000c      	movs	r4, r1
    2d44:	0015      	movs	r5, r2
    2d46:	2202      	movs	r2, #2
    2d48:	4b16      	ldr	r3, [pc, #88]	; (2da4 <usb_find_cfg_desc+0x64>)
    2d4a:	4798      	blx	r3
    2d4c:	2800      	cmp	r0, #0
    2d4e:	d01d      	beq.n	2d8c <usb_find_cfg_desc+0x4c>
    2d50:	4284      	cmp	r4, r0
    2d52:	d91c      	bls.n	2d8e <usb_find_cfg_desc+0x4e>
    2d54:	7803      	ldrb	r3, [r0, #0]
    2d56:	2b01      	cmp	r3, #1
    2d58:	d91b      	bls.n	2d92 <usb_find_cfg_desc+0x52>
    2d5a:	7843      	ldrb	r3, [r0, #1]
    2d5c:	2b02      	cmp	r3, #2
    2d5e:	d11a      	bne.n	2d96 <usb_find_cfg_desc+0x56>
    2d60:	7943      	ldrb	r3, [r0, #5]
    2d62:	42ab      	cmp	r3, r5
    2d64:	d012      	beq.n	2d8c <usb_find_cfg_desc+0x4c>
    2d66:	78c2      	ldrb	r2, [r0, #3]
    2d68:	0212      	lsls	r2, r2, #8
    2d6a:	7883      	ldrb	r3, [r0, #2]
    2d6c:	189b      	adds	r3, r3, r2
    2d6e:	b29b      	uxth	r3, r3
    2d70:	18c0      	adds	r0, r0, r3
    2d72:	4284      	cmp	r4, r0
    2d74:	d909      	bls.n	2d8a <usb_find_cfg_desc+0x4a>
    2d76:	7803      	ldrb	r3, [r0, #0]
    2d78:	2b01      	cmp	r3, #1
    2d7a:	d90e      	bls.n	2d9a <usb_find_cfg_desc+0x5a>
    2d7c:	7843      	ldrb	r3, [r0, #1]
    2d7e:	2b02      	cmp	r3, #2
    2d80:	d10d      	bne.n	2d9e <usb_find_cfg_desc+0x5e>
    2d82:	7943      	ldrb	r3, [r0, #5]
    2d84:	42ab      	cmp	r3, r5
    2d86:	d1ee      	bne.n	2d66 <usb_find_cfg_desc+0x26>
    2d88:	e000      	b.n	2d8c <usb_find_cfg_desc+0x4c>
    2d8a:	2000      	movs	r0, #0
    2d8c:	bd70      	pop	{r4, r5, r6, pc}
    2d8e:	2000      	movs	r0, #0
    2d90:	e7fc      	b.n	2d8c <usb_find_cfg_desc+0x4c>
    2d92:	2000      	movs	r0, #0
    2d94:	e7fa      	b.n	2d8c <usb_find_cfg_desc+0x4c>
    2d96:	2000      	movs	r0, #0
    2d98:	e7f8      	b.n	2d8c <usb_find_cfg_desc+0x4c>
    2d9a:	2000      	movs	r0, #0
    2d9c:	e7f6      	b.n	2d8c <usb_find_cfg_desc+0x4c>
    2d9e:	2000      	movs	r0, #0
    2da0:	e7f4      	b.n	2d8c <usb_find_cfg_desc+0x4c>
    2da2:	46c0      	nop			; (mov r8, r8)
    2da4:	00002cc5 	.word	0x00002cc5

00002da8 <usb_find_str_desc>:
    2da8:	b5f8      	push	{r3, r4, r5, r6, r7, lr}
    2daa:	000d      	movs	r5, r1
    2dac:	0017      	movs	r7, r2
    2dae:	4288      	cmp	r0, r1
    2db0:	d212      	bcs.n	2dd8 <usb_find_str_desc+0x30>
    2db2:	2400      	movs	r4, #0
    2db4:	4e0a      	ldr	r6, [pc, #40]	; (2de0 <usb_find_str_desc+0x38>)
    2db6:	2203      	movs	r2, #3
    2db8:	0029      	movs	r1, r5
    2dba:	47b0      	blx	r6
    2dbc:	2800      	cmp	r0, #0
    2dbe:	d00e      	beq.n	2dde <usb_find_str_desc+0x36>
    2dc0:	7803      	ldrb	r3, [r0, #0]
    2dc2:	2b01      	cmp	r3, #1
    2dc4:	d90a      	bls.n	2ddc <usb_find_str_desc+0x34>
    2dc6:	42a7      	cmp	r7, r4
    2dc8:	d009      	beq.n	2dde <usb_find_str_desc+0x36>
    2dca:	3401      	adds	r4, #1
    2dcc:	b2e4      	uxtb	r4, r4
    2dce:	18c0      	adds	r0, r0, r3
    2dd0:	4285      	cmp	r5, r0
    2dd2:	d8f0      	bhi.n	2db6 <usb_find_str_desc+0xe>
    2dd4:	2000      	movs	r0, #0
    2dd6:	e002      	b.n	2dde <usb_find_str_desc+0x36>
    2dd8:	2000      	movs	r0, #0
    2dda:	e000      	b.n	2dde <usb_find_str_desc+0x36>
    2ddc:	2000      	movs	r0, #0
    2dde:	bdf8      	pop	{r3, r4, r5, r6, r7, pc}
    2de0:	00002cc5 	.word	0x00002cc5

00002de4 <cdc_write_finished>:
/**
 * \brief Callback invoked when bulk IN data received
 */
static bool cdc_write_finished(const uint8_t ep, const enum usb_xfer_code rc, const uint32_t count)
{
    pending_write = false;
    2de4:	2200      	movs	r2, #0
    2de6:	4b02      	ldr	r3, [pc, #8]	; (2df0 <cdc_write_finished+0xc>)
    2de8:	701a      	strb	r2, [r3, #0]

	/* No error. */
	return false;
}
    2dea:	2000      	movs	r0, #0
    2dec:	4770      	bx	lr
    2dee:	46c0      	nop			; (mov r8, r8)
    2df0:	2000051c 	.word	0x2000051c

00002df4 <cdc_read_start>:
{
    2df4:	b510      	push	{r4, lr}
    pending_read = true;
    2df6:	2201      	movs	r2, #1
    2df8:	4b03      	ldr	r3, [pc, #12]	; (2e08 <cdc_read_start+0x14>)
    2dfa:	705a      	strb	r2, [r3, #1]
    return cdcdf_acm_read(usbd_cdc_buffer, USBD_CDC_BUFFER_SIZE);
    2dfc:	2140      	movs	r1, #64	; 0x40
    2dfe:	4803      	ldr	r0, [pc, #12]	; (2e0c <cdc_read_start+0x18>)
    2e00:	4b03      	ldr	r3, [pc, #12]	; (2e10 <cdc_read_start+0x1c>)
    2e02:	4798      	blx	r3
}
    2e04:	bd10      	pop	{r4, pc}
    2e06:	46c0      	nop			; (mov r8, r8)
    2e08:	2000051c 	.word	0x2000051c
    2e0c:	2000063c 	.word	0x2000063c
    2e10:	0000250d 	.word	0x0000250d

00002e14 <usb_device_state_changed_handler>:

/**
 * \brief Callback invoked when Line State Change
 */
static bool usb_device_state_changed_handler(usb_cdc_control_signal_t state)
{
    2e14:	b510      	push	{r4, lr}
    2e16:	b082      	sub	sp, #8
    2e18:	1c03      	adds	r3, r0, #0
    2e1a:	aa01      	add	r2, sp, #4
    2e1c:	8010      	strh	r0, [r2, #0]
	if (state.rs232.DTR) 
    2e1e:	07db      	lsls	r3, r3, #31
    2e20:	d405      	bmi.n	2e2e <usb_device_state_changed_handler+0x1a>
		cdc_read_start();
		cdc_connected = true;
	}
	else
	{
		cdc_connected = false;
    2e22:	2200      	movs	r2, #0
    2e24:	4b08      	ldr	r3, [pc, #32]	; (2e48 <usb_device_state_changed_handler+0x34>)
    2e26:	709a      	strb	r2, [r3, #2]
	}

	/* No error. */
	return false;
}
    2e28:	2000      	movs	r0, #0
    2e2a:	b002      	add	sp, #8
    2e2c:	bd10      	pop	{r4, pc}
		cdcdf_acm_register_callback(CDCDF_ACM_CB_READ, (FUNC_PTR)cdc_read_finished);
    2e2e:	4907      	ldr	r1, [pc, #28]	; (2e4c <usb_device_state_changed_handler+0x38>)
    2e30:	2000      	movs	r0, #0
    2e32:	4c07      	ldr	r4, [pc, #28]	; (2e50 <usb_device_state_changed_handler+0x3c>)
    2e34:	47a0      	blx	r4
		cdcdf_acm_register_callback(CDCDF_ACM_CB_WRITE, (FUNC_PTR)cdc_write_finished);
    2e36:	4907      	ldr	r1, [pc, #28]	; (2e54 <usb_device_state_changed_handler+0x40>)
    2e38:	2001      	movs	r0, #1
    2e3a:	47a0      	blx	r4
		cdc_read_start();
    2e3c:	4b06      	ldr	r3, [pc, #24]	; (2e58 <usb_device_state_changed_handler+0x44>)
    2e3e:	4798      	blx	r3
		cdc_connected = true;
    2e40:	2201      	movs	r2, #1
    2e42:	4b01      	ldr	r3, [pc, #4]	; (2e48 <usb_device_state_changed_handler+0x34>)
    2e44:	709a      	strb	r2, [r3, #2]
    2e46:	e7ef      	b.n	2e28 <usb_device_state_changed_handler+0x14>
    2e48:	2000051c 	.word	0x2000051c
    2e4c:	00002e5d 	.word	0x00002e5d
    2e50:	00002565 	.word	0x00002565
    2e54:	00002de5 	.word	0x00002de5
    2e58:	00002df5 	.word	0x00002df5

00002e5c <cdc_read_finished>:
{
    2e5c:	b570      	push	{r4, r5, r6, lr}
    2e5e:	b082      	sub	sp, #8
    2e60:	0014      	movs	r4, r2
	bool result = false;
    2e62:	2500      	movs	r5, #0
	if (rc == USB_XFER_DONE)
    2e64:	2900      	cmp	r1, #0
    2e66:	d11b      	bne.n	2ea0 <cdc_read_finished+0x44>
		if (count > 0) {
    2e68:	2a00      	cmp	r2, #0
    2e6a:	d025      	beq.n	2eb8 <cdc_read_finished+0x5c>
			user_typing = true;
    2e6c:	4b26      	ldr	r3, [pc, #152]	; (2f08 <cdc_read_finished+0xac>)
    2e6e:	2201      	movs	r2, #1
    2e70:	70da      	strb	r2, [r3, #3]
			typing_timeout = 20;   // pause ? 5 * delay_ms(speed). Adjust as needed.
    2e72:	3213      	adds	r2, #19
    2e74:	605a      	str	r2, [r3, #4]
		pending_read = false;
    2e76:	2200      	movs	r2, #0
    2e78:	705a      	strb	r2, [r3, #1]
		int input_buffer_bytes_remaining = (int) (USBD_CDC_BUFFER_SIZE - input_length);
    2e7a:	689b      	ldr	r3, [r3, #8]
    2e7c:	3540      	adds	r5, #64	; 0x40
    2e7e:	1aed      	subs	r5, r5, r3
		atomic_enter_critical(&flags);
    2e80:	a801      	add	r0, sp, #4
    2e82:	4b22      	ldr	r3, [pc, #136]	; (2f0c <cdc_read_finished+0xb0>)
    2e84:	4798      	blx	r3
		if (count <= input_buffer_bytes_remaining)
    2e86:	42ac      	cmp	r4, r5
    2e88:	d91e      	bls.n	2ec8 <cdc_read_finished+0x6c>
			result = true;
    2e8a:	2501      	movs	r5, #1
		memset(usbd_cdc_buffer, 0, USBD_CDC_BUFFER_SIZE);
    2e8c:	2240      	movs	r2, #64	; 0x40
    2e8e:	2100      	movs	r1, #0
    2e90:	481f      	ldr	r0, [pc, #124]	; (2f10 <cdc_read_finished+0xb4>)
    2e92:	4b20      	ldr	r3, [pc, #128]	; (2f14 <cdc_read_finished+0xb8>)
    2e94:	4798      	blx	r3
		atomic_leave_critical(&flags);
    2e96:	a801      	add	r0, sp, #4
    2e98:	4b1f      	ldr	r3, [pc, #124]	; (2f18 <cdc_read_finished+0xbc>)
    2e9a:	4798      	blx	r3
		cdc_read_start();
    2e9c:	4b1f      	ldr	r3, [pc, #124]	; (2f1c <cdc_read_finished+0xc0>)
    2e9e:	4798      	blx	r3
}
    2ea0:	0028      	movs	r0, r5
    2ea2:	b002      	add	sp, #8
    2ea4:	bd70      	pop	{r4, r5, r6, pc}
    2ea6:	2900      	cmp	r1, #0
    2ea8:	d101      	bne.n	2eae <cdc_read_finished+0x52>
	bool result = false;
    2eaa:	2500      	movs	r5, #0
    2eac:	e7ee      	b.n	2e8c <cdc_read_finished+0x30>
    2eae:	4a16      	ldr	r2, [pc, #88]	; (2f08 <cdc_read_finished+0xac>)
    2eb0:	6093      	str	r3, [r2, #8]
    2eb2:	e7fa      	b.n	2eaa <cdc_read_finished+0x4e>
    2eb4:	2500      	movs	r5, #0
    2eb6:	e7e9      	b.n	2e8c <cdc_read_finished+0x30>
		pending_read = false;
    2eb8:	2200      	movs	r2, #0
    2eba:	4b13      	ldr	r3, [pc, #76]	; (2f08 <cdc_read_finished+0xac>)
    2ebc:	705a      	strb	r2, [r3, #1]
		atomic_enter_critical(&flags);
    2ebe:	a801      	add	r0, sp, #4
    2ec0:	4b12      	ldr	r3, [pc, #72]	; (2f0c <cdc_read_finished+0xb0>)
    2ec2:	4798      	blx	r3
	bool result = false;
    2ec4:	2500      	movs	r5, #0
    2ec6:	e7e1      	b.n	2e8c <cdc_read_finished+0x30>
				input_buffer[input_length] = c;
    2ec8:	4a0f      	ldr	r2, [pc, #60]	; (2f08 <cdc_read_finished+0xac>)
    2eca:	6890      	ldr	r0, [r2, #8]
    2ecc:	1813      	adds	r3, r2, r0
				uint8_t c = usbd_cdc_buffer[i];
    2ece:	4910      	ldr	r1, [pc, #64]	; (2f10 <cdc_read_finished+0xb4>)
				input_buffer[input_length] = c;
    2ed0:	7809      	ldrb	r1, [r1, #0]
    2ed2:	7319      	strb	r1, [r3, #12]
				input_length++;
    2ed4:	1c43      	adds	r3, r0, #1
    2ed6:	6093      	str	r3, [r2, #8]
				if (input_length == USBD_CDC_BUFFER_SIZE)
    2ed8:	2b40      	cmp	r3, #64	; 0x40
    2eda:	d0eb      	beq.n	2eb4 <cdc_read_finished+0x58>
    2edc:	1822      	adds	r2, r4, r0
    2ede:	2100      	movs	r1, #0
				input_buffer[input_length] = c;
    2ee0:	4c09      	ldr	r4, [pc, #36]	; (2f08 <cdc_read_finished+0xac>)
    2ee2:	340c      	adds	r4, #12
				uint8_t c = usbd_cdc_buffer[i];
    2ee4:	43c0      	mvns	r0, r0
    2ee6:	4e0a      	ldr	r6, [pc, #40]	; (2f10 <cdc_read_finished+0xb4>)
    2ee8:	2501      	movs	r5, #1
			for (uint16_t i = 0; i < count; i++)
    2eea:	429a      	cmp	r2, r3
    2eec:	d0db      	beq.n	2ea6 <cdc_read_finished+0x4a>
				uint8_t c = usbd_cdc_buffer[i];
    2eee:	18c1      	adds	r1, r0, r3
    2ef0:	1989      	adds	r1, r1, r6
				input_buffer[input_length] = c;
    2ef2:	7849      	ldrb	r1, [r1, #1]
    2ef4:	5519      	strb	r1, [r3, r4]
				input_length++;
    2ef6:	3301      	adds	r3, #1
    2ef8:	0029      	movs	r1, r5
				if (input_length == USBD_CDC_BUFFER_SIZE)
    2efa:	2b40      	cmp	r3, #64	; 0x40
    2efc:	d1f5      	bne.n	2eea <cdc_read_finished+0x8e>
    2efe:	2240      	movs	r2, #64	; 0x40
    2f00:	4b01      	ldr	r3, [pc, #4]	; (2f08 <cdc_read_finished+0xac>)
    2f02:	609a      	str	r2, [r3, #8]
	bool result = false;
    2f04:	2500      	movs	r5, #0
    2f06:	e7c1      	b.n	2e8c <cdc_read_finished+0x30>
    2f08:	2000051c 	.word	0x2000051c
    2f0c:	00000415 	.word	0x00000415
    2f10:	2000063c 	.word	0x2000063c
    2f14:	000034d3 	.word	0x000034d3
    2f18:	00000423 	.word	0x00000423
    2f1c:	00002df5 	.word	0x00002df5

00002f20 <cdc_device_acm_init>:

/**
 * \brief CDC ACM Init
 */
void cdc_device_acm_init(void)
{
    2f20:	b510      	push	{r4, lr}
	/* usb stack init */
	usbdc_init(ctrl_buffer);
    2f22:	4806      	ldr	r0, [pc, #24]	; (2f3c <cdc_device_acm_init+0x1c>)
    2f24:	304c      	adds	r0, #76	; 0x4c
    2f26:	4b06      	ldr	r3, [pc, #24]	; (2f40 <cdc_device_acm_init+0x20>)
    2f28:	4798      	blx	r3

	/* usbdc_register_funcion inside */
	cdcdf_acm_init();
    2f2a:	4b06      	ldr	r3, [pc, #24]	; (2f44 <cdc_device_acm_init+0x24>)
    2f2c:	4798      	blx	r3

	usbdc_start(single_desc);
    2f2e:	4806      	ldr	r0, [pc, #24]	; (2f48 <cdc_device_acm_init+0x28>)
    2f30:	4b06      	ldr	r3, [pc, #24]	; (2f4c <cdc_device_acm_init+0x2c>)
    2f32:	4798      	blx	r3
	usbdc_attach();
    2f34:	4b06      	ldr	r3, [pc, #24]	; (2f50 <cdc_device_acm_init+0x30>)
    2f36:	4798      	blx	r3
}
    2f38:	bd10      	pop	{r4, pc}
    2f3a:	46c0      	nop			; (mov r8, r8)
    2f3c:	2000051c 	.word	0x2000051c
    2f40:	00002bed 	.word	0x00002bed
    2f44:	000024c9 	.word	0x000024c9
    2f48:	20000018 	.word	0x20000018
    2f4c:	00002c65 	.word	0x00002c65
    2f50:	00002c9d 	.word	0x00002c9d

00002f54 <usb_serial_begin>:
{
	cdc_device_acm_init();
}

void usb_serial_begin(void)
{
    2f54:	b510      	push	{r4, lr}
	// Initialize USB device and attach, but DO NOT wait for host
	cdc_device_acm_init();
    2f56:	4b03      	ldr	r3, [pc, #12]	; (2f64 <usb_serial_begin+0x10>)
    2f58:	4798      	blx	r3

	// Register for line-state (DTR) change; this sets cdc_connected later
	cdcdf_acm_register_callback(CDCDF_ACM_CB_STATE_C, (FUNC_PTR)usb_device_state_changed_handler);
    2f5a:	4903      	ldr	r1, [pc, #12]	; (2f68 <usb_serial_begin+0x14>)
    2f5c:	2003      	movs	r0, #3
    2f5e:	4b03      	ldr	r3, [pc, #12]	; (2f6c <usb_serial_begin+0x18>)
    2f60:	4798      	blx	r3
}
    2f62:	bd10      	pop	{r4, pc}
    2f64:	00002f21 	.word	0x00002f21
    2f68:	00002e15 	.word	0x00002e15
    2f6c:	00002565 	.word	0x00002565

00002f70 <usb_serial_read>:

    return input_length;
}

int32_t usb_serial_read (char *const user_input_buffer, const uint16_t user_input_buffer_length)
{
    2f70:	b5f0      	push	{r4, r5, r6, r7, lr}
    2f72:	b085      	sub	sp, #20
    2f74:	0007      	movs	r7, r0
    2f76:	000c      	movs	r4, r1
    int result = 0;

    if (input_length > 0)
    2f78:	4b22      	ldr	r3, [pc, #136]	; (3004 <usb_serial_read+0x94>)
    2f7a:	689d      	ldr	r5, [r3, #8]
    int result = 0;
    2f7c:	2300      	movs	r3, #0
    2f7e:	9301      	str	r3, [sp, #4]
    if (input_length > 0)
    2f80:	2d00      	cmp	r5, #0
    2f82:	d024      	beq.n	2fce <usb_serial_read+0x5e>
    {
        int bytes_to_copy = 0;
        int bytes_remaining = 0;
        int idx_of_first_remaining = 0;
        if (input_length >= user_input_buffer_length)
    2f84:	428d      	cmp	r5, r1
    2f86:	d325      	bcc.n	2fd4 <usb_serial_read+0x64>
        {
            bytes_to_copy = user_input_buffer_length;
    2f88:	9101      	str	r1, [sp, #4]
            bytes_remaining = input_length - user_input_buffer_length;
    2f8a:	1a6d      	subs	r5, r5, r1
            bytes_to_copy = input_length;
        }

        result = bytes_to_copy;

        CRITICAL_SECTION_ENTER()
    2f8c:	a803      	add	r0, sp, #12
    2f8e:	4b1e      	ldr	r3, [pc, #120]	; (3008 <usb_serial_read+0x98>)
    2f90:	4798      	blx	r3

        memcpy(user_input_buffer, input_buffer, bytes_to_copy);
    2f92:	0022      	movs	r2, r4
    2f94:	491b      	ldr	r1, [pc, #108]	; (3004 <usb_serial_read+0x94>)
    2f96:	310c      	adds	r1, #12
    2f98:	0038      	movs	r0, r7
    2f9a:	4b1c      	ldr	r3, [pc, #112]	; (300c <usb_serial_read+0x9c>)
    2f9c:	4798      	blx	r3

        if (bytes_remaining > 0)
    2f9e:	2d00      	cmp	r5, #0
    2fa0:	dd22      	ble.n	2fe8 <usb_serial_read+0x78>
        {
            memcpy(input_buffer, (input_buffer + idx_of_first_remaining), bytes_remaining);
    2fa2:	4e18      	ldr	r6, [pc, #96]	; (3004 <usb_serial_read+0x94>)
    2fa4:	0037      	movs	r7, r6
    2fa6:	370c      	adds	r7, #12
    2fa8:	1939      	adds	r1, r7, r4
    2faa:	002a      	movs	r2, r5
    2fac:	0038      	movs	r0, r7
    2fae:	4b17      	ldr	r3, [pc, #92]	; (300c <usb_serial_read+0x9c>)
    2fb0:	4798      	blx	r3
            memset((input_buffer + bytes_remaining), 0, (input_length - bytes_remaining));
    2fb2:	68b3      	ldr	r3, [r6, #8]
    2fb4:	1b5a      	subs	r2, r3, r5
    2fb6:	1978      	adds	r0, r7, r5
    2fb8:	2100      	movs	r1, #0
    2fba:	4b15      	ldr	r3, [pc, #84]	; (3010 <usb_serial_read+0xa0>)
    2fbc:	4798      	blx	r3
            input_length = bytes_remaining;
    2fbe:	60b5      	str	r5, [r6, #8]
        {
            memset(input_buffer, 0, input_length);
            input_length = 0;
        }

        CRITICAL_SECTION_LEAVE()
    2fc0:	a803      	add	r0, sp, #12
    2fc2:	4b14      	ldr	r3, [pc, #80]	; (3014 <usb_serial_read+0xa4>)
    2fc4:	4798      	blx	r3

        if (!pending_read)
    2fc6:	4b0f      	ldr	r3, [pc, #60]	; (3004 <usb_serial_read+0x94>)
    2fc8:	785b      	ldrb	r3, [r3, #1]
    2fca:	2b00      	cmp	r3, #0
    2fcc:	d016      	beq.n	2ffc <usb_serial_read+0x8c>
            cdc_read_start();
        }
    }

    return result;
}
    2fce:	9801      	ldr	r0, [sp, #4]
    2fd0:	b005      	add	sp, #20
    2fd2:	bdf0      	pop	{r4, r5, r6, r7, pc}
            bytes_to_copy = input_length;
    2fd4:	9501      	str	r5, [sp, #4]
        CRITICAL_SECTION_ENTER()
    2fd6:	a803      	add	r0, sp, #12
    2fd8:	4b0b      	ldr	r3, [pc, #44]	; (3008 <usb_serial_read+0x98>)
    2fda:	4798      	blx	r3
        memcpy(user_input_buffer, input_buffer, bytes_to_copy);
    2fdc:	002a      	movs	r2, r5
    2fde:	4909      	ldr	r1, [pc, #36]	; (3004 <usb_serial_read+0x94>)
    2fe0:	310c      	adds	r1, #12
    2fe2:	0038      	movs	r0, r7
    2fe4:	4b09      	ldr	r3, [pc, #36]	; (300c <usb_serial_read+0x9c>)
    2fe6:	4798      	blx	r3
            memset(input_buffer, 0, input_length);
    2fe8:	4c06      	ldr	r4, [pc, #24]	; (3004 <usb_serial_read+0x94>)
    2fea:	0020      	movs	r0, r4
    2fec:	300c      	adds	r0, #12
    2fee:	68a2      	ldr	r2, [r4, #8]
    2ff0:	2100      	movs	r1, #0
    2ff2:	4b07      	ldr	r3, [pc, #28]	; (3010 <usb_serial_read+0xa0>)
    2ff4:	4798      	blx	r3
            input_length = 0;
    2ff6:	2300      	movs	r3, #0
    2ff8:	60a3      	str	r3, [r4, #8]
    2ffa:	e7e1      	b.n	2fc0 <usb_serial_read+0x50>
            cdc_read_start();
    2ffc:	4b06      	ldr	r3, [pc, #24]	; (3018 <usb_serial_read+0xa8>)
    2ffe:	4798      	blx	r3
    3000:	e7e5      	b.n	2fce <usb_serial_read+0x5e>
    3002:	46c0      	nop			; (mov r8, r8)
    3004:	2000051c 	.word	0x2000051c
    3008:	00000415 	.word	0x00000415
    300c:	000034c1 	.word	0x000034c1
    3010:	000034d3 	.word	0x000034d3
    3014:	00000423 	.word	0x00000423
    3018:	00002df5 	.word	0x00002df5

0000301c <usb_serial_write>:

int32_t usb_serial_write (const char *const user_output_buffer, const uint16_t user_output_buffer_length)
{
    301c:	b5f8      	push	{r3, r4, r5, r6, r7, lr}
    301e:	46de      	mov	lr, fp
    3020:	4657      	mov	r7, sl
    3022:	464e      	mov	r6, r9
    3024:	4645      	mov	r5, r8
    3026:	b5e0      	push	{r5, r6, r7, lr}
    3028:	4680      	mov	r8, r0
    302a:	1e0f      	subs	r7, r1, #0
	for (int i = 0; i < length && cdc_connected; i++)
    302c:	dd2b      	ble.n	3086 <usb_serial_write+0x6a>
    302e:	4b19      	ldr	r3, [pc, #100]	; (3094 <usb_serial_write+0x78>)
    3030:	789b      	ldrb	r3, [r3, #2]
    3032:	2b00      	cmp	r3, #0
    3034:	d027      	beq.n	3086 <usb_serial_write+0x6a>
    3036:	2500      	movs	r5, #0
		output_buffer[output_length++] = p;
    3038:	4e17      	ldr	r6, [pc, #92]	; (3098 <usb_serial_write+0x7c>)
		pending_write = true;
    303a:	4b16      	ldr	r3, [pc, #88]	; (3094 <usb_serial_write+0x78>)
    303c:	469b      	mov	fp, r3
    303e:	2301      	movs	r3, #1
    3040:	469a      	mov	sl, r3
		cdcdf_acm_write(output_buffer, output_length);
    3042:	4b16      	ldr	r3, [pc, #88]	; (309c <usb_serial_write+0x80>)
    3044:	4699      	mov	r9, r3
		while(pending_write && cdc_connected);
    3046:	465c      	mov	r4, fp
    3048:	e009      	b.n	305e <usb_serial_write+0x42>
		output_length = 0;
    304a:	2200      	movs	r2, #0
    304c:	4b12      	ldr	r3, [pc, #72]	; (3098 <usb_serial_write+0x7c>)
    304e:	60da      	str	r2, [r3, #12]
	for (int i = 0; i < length && cdc_connected; i++)
    3050:	3501      	adds	r5, #1
    3052:	42af      	cmp	r7, r5
    3054:	dd17      	ble.n	3086 <usb_serial_write+0x6a>
    3056:	4b0f      	ldr	r3, [pc, #60]	; (3094 <usb_serial_write+0x78>)
    3058:	789b      	ldrb	r3, [r3, #2]
    305a:	2b00      	cmp	r3, #0
    305c:	d013      	beq.n	3086 <usb_serial_write+0x6a>
		char p = buf[i];
    305e:	4643      	mov	r3, r8
    3060:	5d5a      	ldrb	r2, [r3, r5]
		output_buffer[output_length++] = p;
    3062:	68f3      	ldr	r3, [r6, #12]
    3064:	1c59      	adds	r1, r3, #1
    3066:	60f1      	str	r1, [r6, #12]
    3068:	18f3      	adds	r3, r6, r3
    306a:	741a      	strb	r2, [r3, #16]
		pending_write = true;
    306c:	465b      	mov	r3, fp
    306e:	4652      	mov	r2, sl
    3070:	701a      	strb	r2, [r3, #0]
		cdcdf_acm_write(output_buffer, output_length);
    3072:	480b      	ldr	r0, [pc, #44]	; (30a0 <usb_serial_write+0x84>)
    3074:	47c8      	blx	r9
		while(pending_write && cdc_connected);
    3076:	4a07      	ldr	r2, [pc, #28]	; (3094 <usb_serial_write+0x78>)
    3078:	7813      	ldrb	r3, [r2, #0]
    307a:	2b00      	cmp	r3, #0
    307c:	d0e5      	beq.n	304a <usb_serial_write+0x2e>
    307e:	78a3      	ldrb	r3, [r4, #2]
    3080:	2b00      	cmp	r3, #0
    3082:	d1f9      	bne.n	3078 <usb_serial_write+0x5c>
    3084:	e7e1      	b.n	304a <usb_serial_write+0x2e>
    return cdc_write(user_output_buffer, user_output_buffer_length);
}
    3086:	0038      	movs	r0, r7
    3088:	bc3c      	pop	{r2, r3, r4, r5}
    308a:	4690      	mov	r8, r2
    308c:	4699      	mov	r9, r3
    308e:	46a2      	mov	sl, r4
    3090:	46ab      	mov	fp, r5
    3092:	bdf8      	pop	{r3, r4, r5, r6, r7, pc}
    3094:	2000051c 	.word	0x2000051c
    3098:	2000059c 	.word	0x2000059c
    309c:	00002539 	.word	0x00002539
    30a0:	200005ac 	.word	0x200005ac

000030a4 <serial_boot_message>:

// Boot message and ASCII art
void serial_boot_message()
{
    30a4:	b570      	push	{r4, r5, r6, lr}
	usb_serial_write("\r\n", 2);
    30a6:	2102      	movs	r1, #2
    30a8:	4813      	ldr	r0, [pc, #76]	; (30f8 <serial_boot_message+0x54>)
    30aa:	4c14      	ldr	r4, [pc, #80]	; (30fc <serial_boot_message+0x58>)
    30ac:	47a0      	blx	r4
	usb_serial_write("'||\\   /||` |''||''| '||''''| .|'''', '||  ||` \r\n", 50);
    30ae:	2132      	movs	r1, #50	; 0x32
    30b0:	4813      	ldr	r0, [pc, #76]	; (3100 <serial_boot_message+0x5c>)
    30b2:	47a0      	blx	r4
	usb_serial_write(" ||\\.// ||     ||     ||   .  ||       ||  ||  \r\n", 50);
    30b4:	2132      	movs	r1, #50	; 0x32
    30b6:	4813      	ldr	r0, [pc, #76]	; (3104 <serial_boot_message+0x60>)
    30b8:	47a0      	blx	r4
	usb_serial_write(" ||     ||     ||     ||'''|  ||       ||''||  \r\n", 50);
    30ba:	2132      	movs	r1, #50	; 0x32
    30bc:	4812      	ldr	r0, [pc, #72]	; (3108 <serial_boot_message+0x64>)
    30be:	47a0      	blx	r4
	usb_serial_write(" ||     ||     ||     ||      ||       ||  ||  \r\n", 50);
    30c0:	2132      	movs	r1, #50	; 0x32
    30c2:	4812      	ldr	r0, [pc, #72]	; (310c <serial_boot_message+0x68>)
    30c4:	47a0      	blx	r4
	usb_serial_write(".||     ||.   .||.   .||....| `|....' .||  ||. \r\n", 50);
    30c6:	2132      	movs	r1, #50	; 0x32
    30c8:	4811      	ldr	r0, [pc, #68]	; (3110 <serial_boot_message+0x6c>)
    30ca:	47a0      	blx	r4

	usb_serial_write("\r\nMontana Tech Electrical Engineering Binary Counter\r\n", 52);
    30cc:	2134      	movs	r1, #52	; 0x34
    30ce:	4811      	ldr	r0, [pc, #68]	; (3114 <serial_boot_message+0x70>)
    30d0:	47a0      	blx	r4
	delay_ms(800);
    30d2:	26c8      	movs	r6, #200	; 0xc8
    30d4:	00b6      	lsls	r6, r6, #2
    30d6:	0030      	movs	r0, r6
    30d8:	4d0f      	ldr	r5, [pc, #60]	; (3118 <serial_boot_message+0x74>)
    30da:	47a8      	blx	r5

	usb_serial_write("\r\nCPU: ATSAMD21E15B\r\n", 21);
    30dc:	2115      	movs	r1, #21
    30de:	480f      	ldr	r0, [pc, #60]	; (311c <serial_boot_message+0x78>)
    30e0:	47a0      	blx	r4
	delay_ms(800);
    30e2:	0030      	movs	r0, r6
    30e4:	47a8      	blx	r5

	usb_serial_write("Clock Speed: 48 MHz OK\r\n", 24);
    30e6:	2118      	movs	r1, #24
    30e8:	480d      	ldr	r0, [pc, #52]	; (3120 <serial_boot_message+0x7c>)
    30ea:	47a0      	blx	r4
	delay_ms(800);
    30ec:	0030      	movs	r0, r6
    30ee:	47a8      	blx	r5

	usb_serial_write("Type 'help' for command info.\r\n", 32);
    30f0:	2120      	movs	r1, #32
    30f2:	480c      	ldr	r0, [pc, #48]	; (3124 <serial_boot_message+0x80>)
    30f4:	47a0      	blx	r4
}
    30f6:	bd70      	pop	{r4, r5, r6, pc}
    30f8:	000042b4 	.word	0x000042b4
    30fc:	0000301d 	.word	0x0000301d
    3100:	00003fc0 	.word	0x00003fc0
    3104:	00003ff4 	.word	0x00003ff4
    3108:	00004028 	.word	0x00004028
    310c:	0000405c 	.word	0x0000405c
    3110:	00004090 	.word	0x00004090
    3114:	000040c4 	.word	0x000040c4
    3118:	00000431 	.word	0x00000431
    311c:	000040fc 	.word	0x000040fc
    3120:	00004114 	.word	0x00004114
    3124:	00004130 	.word	0x00004130

00003128 <handle_usb_command>:


// Command interpreter
void handle_usb_command(char *cmd)
{
    3128:	b570      	push	{r4, r5, r6, lr}
    312a:	0005      	movs	r5, r0
	extern bool counting;
	extern uint32_t count;
	extern uint32_t speed;

	
	for (int i = 0; cmd[i]; i++) {
    312c:	7800      	ldrb	r0, [r0, #0]
    312e:	2800      	cmp	r0, #0
    3130:	d007      	beq.n	3142 <handle_usb_command+0x1a>
    3132:	002c      	movs	r4, r5
		cmd[i] = toupper((unsigned char)cmd[i]);	// Case insensitivity for given inputs
    3134:	4e67      	ldr	r6, [pc, #412]	; (32d4 <handle_usb_command+0x1ac>)
    3136:	47b0      	blx	r6
    3138:	7020      	strb	r0, [r4, #0]
	for (int i = 0; cmd[i]; i++) {
    313a:	3401      	adds	r4, #1
    313c:	7820      	ldrb	r0, [r4, #0]
    313e:	2800      	cmp	r0, #0
    3140:	d1f9      	bne.n	3136 <handle_usb_command+0xe>
	}
	if (strcmp(cmd, "STOP") == 0) {					// Stops the counter
    3142:	4965      	ldr	r1, [pc, #404]	; (32d8 <handle_usb_command+0x1b0>)
    3144:	0028      	movs	r0, r5
    3146:	4b65      	ldr	r3, [pc, #404]	; (32dc <handle_usb_command+0x1b4>)
    3148:	4798      	blx	r3
    314a:	2800      	cmp	r0, #0
    314c:	d024      	beq.n	3198 <handle_usb_command+0x70>
		counting = false;
		usb_serial_write("OK\r\n", 4);
	}
	else if (strcmp(cmd, "COUNT") == 0) {			// Starts the counter
    314e:	4964      	ldr	r1, [pc, #400]	; (32e0 <handle_usb_command+0x1b8>)
    3150:	0028      	movs	r0, r5
    3152:	4b62      	ldr	r3, [pc, #392]	; (32dc <handle_usb_command+0x1b4>)
    3154:	4798      	blx	r3
    3156:	2800      	cmp	r0, #0
    3158:	d026      	beq.n	31a8 <handle_usb_command+0x80>
		counting = true;
		usb_serial_write("OK\r\n", 4);
	}
	else if (strcmp(cmd, "START") == 0) {			// Starts the counter
    315a:	4962      	ldr	r1, [pc, #392]	; (32e4 <handle_usb_command+0x1bc>)
    315c:	0028      	movs	r0, r5
    315e:	4b5f      	ldr	r3, [pc, #380]	; (32dc <handle_usb_command+0x1b4>)
    3160:	4798      	blx	r3
    3162:	2800      	cmp	r0, #0
    3164:	d028      	beq.n	31b8 <handle_usb_command+0x90>
		counting = true;
		usb_serial_write("OK\r\n", 4);
	}
	else if (strncmp(cmd, "SET ", 4) == 0) {		// Sets a value either in decimal or hex on the counter
    3166:	2204      	movs	r2, #4
    3168:	495f      	ldr	r1, [pc, #380]	; (32e8 <handle_usb_command+0x1c0>)
    316a:	0028      	movs	r0, r5
    316c:	4b5f      	ldr	r3, [pc, #380]	; (32ec <handle_usb_command+0x1c4>)
    316e:	4798      	blx	r3
    3170:	2800      	cmp	r0, #0
    3172:	d138      	bne.n	31e6 <handle_usb_command+0xbe>
		char *valstr = &cmd[4];
    3174:	1d28      	adds	r0, r5, #4
		uint32_t val = 0;

		if (valstr[0] == '0' && (valstr[1] == 'x' || valstr[1] == 'X')) {
    3176:	792b      	ldrb	r3, [r5, #4]
    3178:	2b30      	cmp	r3, #48	; 0x30
    317a:	d025      	beq.n	31c8 <handle_usb_command+0xa0>
			val = strtoul(valstr, NULL, 16);
			} else {
			val = strtoul(valstr, NULL, 10);
    317c:	220a      	movs	r2, #10
    317e:	2100      	movs	r1, #0
    3180:	4b5b      	ldr	r3, [pc, #364]	; (32f0 <handle_usb_command+0x1c8>)
    3182:	4798      	blx	r3
		}
		if (val < 1024) {
    3184:	4b5b      	ldr	r3, [pc, #364]	; (32f4 <handle_usb_command+0x1cc>)
    3186:	4298      	cmp	r0, r3
    3188:	d828      	bhi.n	31dc <handle_usb_command+0xb4>
			count = val;
    318a:	4b5b      	ldr	r3, [pc, #364]	; (32f8 <handle_usb_command+0x1d0>)
    318c:	6018      	str	r0, [r3, #0]
			usb_serial_write("OK\r\n", 4);
    318e:	2104      	movs	r1, #4
    3190:	485a      	ldr	r0, [pc, #360]	; (32fc <handle_usb_command+0x1d4>)
    3192:	4b5b      	ldr	r3, [pc, #364]	; (3300 <handle_usb_command+0x1d8>)
    3194:	4798      	blx	r3
    3196:	e006      	b.n	31a6 <handle_usb_command+0x7e>
		counting = false;
    3198:	2200      	movs	r2, #0
    319a:	4b5a      	ldr	r3, [pc, #360]	; (3304 <handle_usb_command+0x1dc>)
    319c:	701a      	strb	r2, [r3, #0]
		usb_serial_write("OK\r\n", 4);
    319e:	2104      	movs	r1, #4
    31a0:	4856      	ldr	r0, [pc, #344]	; (32fc <handle_usb_command+0x1d4>)
    31a2:	4b57      	ldr	r3, [pc, #348]	; (3300 <handle_usb_command+0x1d8>)
    31a4:	4798      	blx	r3
	}

	else {
		usb_serial_write("?\r\n", 3);
	}
}
    31a6:	bd70      	pop	{r4, r5, r6, pc}
		counting = true;
    31a8:	2201      	movs	r2, #1
    31aa:	4b56      	ldr	r3, [pc, #344]	; (3304 <handle_usb_command+0x1dc>)
    31ac:	701a      	strb	r2, [r3, #0]
		usb_serial_write("OK\r\n", 4);
    31ae:	2104      	movs	r1, #4
    31b0:	4852      	ldr	r0, [pc, #328]	; (32fc <handle_usb_command+0x1d4>)
    31b2:	4b53      	ldr	r3, [pc, #332]	; (3300 <handle_usb_command+0x1d8>)
    31b4:	4798      	blx	r3
    31b6:	e7f6      	b.n	31a6 <handle_usb_command+0x7e>
		counting = true;
    31b8:	2201      	movs	r2, #1
    31ba:	4b52      	ldr	r3, [pc, #328]	; (3304 <handle_usb_command+0x1dc>)
    31bc:	701a      	strb	r2, [r3, #0]
		usb_serial_write("OK\r\n", 4);
    31be:	2104      	movs	r1, #4
    31c0:	484e      	ldr	r0, [pc, #312]	; (32fc <handle_usb_command+0x1d4>)
    31c2:	4b4f      	ldr	r3, [pc, #316]	; (3300 <handle_usb_command+0x1d8>)
    31c4:	4798      	blx	r3
    31c6:	e7ee      	b.n	31a6 <handle_usb_command+0x7e>
		if (valstr[0] == '0' && (valstr[1] == 'x' || valstr[1] == 'X')) {
    31c8:	796b      	ldrb	r3, [r5, #5]
    31ca:	2220      	movs	r2, #32
    31cc:	4393      	bics	r3, r2
    31ce:	2b58      	cmp	r3, #88	; 0x58
    31d0:	d1d4      	bne.n	317c <handle_usb_command+0x54>
			val = strtoul(valstr, NULL, 16);
    31d2:	3a10      	subs	r2, #16
    31d4:	2100      	movs	r1, #0
    31d6:	4b46      	ldr	r3, [pc, #280]	; (32f0 <handle_usb_command+0x1c8>)
    31d8:	4798      	blx	r3
		if (valstr[0] == '0' && (valstr[1] == 'x' || valstr[1] == 'X')) {
    31da:	e7d3      	b.n	3184 <handle_usb_command+0x5c>
			usb_serial_write("ERR\r\n", 5);
    31dc:	2105      	movs	r1, #5
    31de:	484a      	ldr	r0, [pc, #296]	; (3308 <handle_usb_command+0x1e0>)
    31e0:	4b47      	ldr	r3, [pc, #284]	; (3300 <handle_usb_command+0x1d8>)
    31e2:	4798      	blx	r3
    31e4:	e7df      	b.n	31a6 <handle_usb_command+0x7e>
	else if (strcmp(cmd, "DEBUG") == 0) {			// Starts Debug Mode
    31e6:	4949      	ldr	r1, [pc, #292]	; (330c <handle_usb_command+0x1e4>)
    31e8:	0028      	movs	r0, r5
    31ea:	4b3c      	ldr	r3, [pc, #240]	; (32dc <handle_usb_command+0x1b4>)
    31ec:	4798      	blx	r3
    31ee:	2800      	cmp	r0, #0
    31f0:	d017      	beq.n	3222 <handle_usb_command+0xfa>
	else if (strncmp(cmd, "SPEED ", 6) == 0) {		// Allows the user to change the speed of the counting
    31f2:	2206      	movs	r2, #6
    31f4:	4946      	ldr	r1, [pc, #280]	; (3310 <handle_usb_command+0x1e8>)
    31f6:	0028      	movs	r0, r5
    31f8:	4b3c      	ldr	r3, [pc, #240]	; (32ec <handle_usb_command+0x1c4>)
    31fa:	4798      	blx	r3
    31fc:	2800      	cmp	r0, #0
    31fe:	d12f      	bne.n	3260 <handle_usb_command+0x138>
		char *valstr = &cmd[6];
    3200:	1da8      	adds	r0, r5, #6
		if (valstr[0] == '0' && (valstr[1] == 'x' || valstr[1] == 'X')) {
    3202:	79ab      	ldrb	r3, [r5, #6]
    3204:	2b30      	cmp	r3, #48	; 0x30
    3206:	d01c      	beq.n	3242 <handle_usb_command+0x11a>
			val = strtoul(valstr, NULL, 10);
    3208:	220a      	movs	r2, #10
    320a:	2100      	movs	r1, #0
    320c:	4b38      	ldr	r3, [pc, #224]	; (32f0 <handle_usb_command+0x1c8>)
    320e:	4798      	blx	r3
		if (val >= 1) {								// Limits the speed to not go under 1ms
    3210:	2800      	cmp	r0, #0
    3212:	d020      	beq.n	3256 <handle_usb_command+0x12e>
			speed = val;
    3214:	4b3f      	ldr	r3, [pc, #252]	; (3314 <handle_usb_command+0x1ec>)
    3216:	6018      	str	r0, [r3, #0]
			usb_serial_write("OK\r\n", 4);
    3218:	2104      	movs	r1, #4
    321a:	4838      	ldr	r0, [pc, #224]	; (32fc <handle_usb_command+0x1d4>)
    321c:	4b38      	ldr	r3, [pc, #224]	; (3300 <handle_usb_command+0x1d8>)
    321e:	4798      	blx	r3
    3220:	e7c1      	b.n	31a6 <handle_usb_command+0x7e>
		debug_mode = true;
    3222:	4a3d      	ldr	r2, [pc, #244]	; (3318 <handle_usb_command+0x1f0>)
    3224:	2501      	movs	r5, #1
    3226:	2350      	movs	r3, #80	; 0x50
    3228:	54d5      	strb	r5, [r2, r3]
		debug_step = 0;
    322a:	2300      	movs	r3, #0
    322c:	2151      	movs	r1, #81	; 0x51
    322e:	5453      	strb	r3, [r2, r1]
		debug_timer = 0;
    3230:	6553      	str	r3, [r2, #84]	; 0x54
		counting = false;  
    3232:	4c34      	ldr	r4, [pc, #208]	; (3304 <handle_usb_command+0x1dc>)
    3234:	7023      	strb	r3, [r4, #0]
		usb_serial_write("OK\r\n", 4);
    3236:	394d      	subs	r1, #77	; 0x4d
    3238:	4830      	ldr	r0, [pc, #192]	; (32fc <handle_usb_command+0x1d4>)
    323a:	4b31      	ldr	r3, [pc, #196]	; (3300 <handle_usb_command+0x1d8>)
    323c:	4798      	blx	r3
		counting = true;
    323e:	7025      	strb	r5, [r4, #0]
    3240:	e7b1      	b.n	31a6 <handle_usb_command+0x7e>
		if (valstr[0] == '0' && (valstr[1] == 'x' || valstr[1] == 'X')) {
    3242:	79eb      	ldrb	r3, [r5, #7]
    3244:	2220      	movs	r2, #32
    3246:	4393      	bics	r3, r2
    3248:	2b58      	cmp	r3, #88	; 0x58
    324a:	d1dd      	bne.n	3208 <handle_usb_command+0xe0>
			val = strtoul(valstr, NULL, 16);
    324c:	3a10      	subs	r2, #16
    324e:	2100      	movs	r1, #0
    3250:	4b27      	ldr	r3, [pc, #156]	; (32f0 <handle_usb_command+0x1c8>)
    3252:	4798      	blx	r3
		if (valstr[0] == '0' && (valstr[1] == 'x' || valstr[1] == 'X')) {
    3254:	e7dc      	b.n	3210 <handle_usb_command+0xe8>
			usb_serial_write("ERR\r\n", 5);
    3256:	2105      	movs	r1, #5
    3258:	482b      	ldr	r0, [pc, #172]	; (3308 <handle_usb_command+0x1e0>)
    325a:	4b29      	ldr	r3, [pc, #164]	; (3300 <handle_usb_command+0x1d8>)
    325c:	4798      	blx	r3
    325e:	e7a2      	b.n	31a6 <handle_usb_command+0x7e>
	else if (strcmp(cmd, "HELP") == 0) {			// HELP screen to give users info on commands (ASCII art for everyone) 
    3260:	492e      	ldr	r1, [pc, #184]	; (331c <handle_usb_command+0x1f4>)
    3262:	0028      	movs	r0, r5
    3264:	4b1d      	ldr	r3, [pc, #116]	; (32dc <handle_usb_command+0x1b4>)
    3266:	4798      	blx	r3
    3268:	2800      	cmp	r0, #0
    326a:	d004      	beq.n	3276 <handle_usb_command+0x14e>
		usb_serial_write("?\r\n", 3);
    326c:	2103      	movs	r1, #3
    326e:	482c      	ldr	r0, [pc, #176]	; (3320 <handle_usb_command+0x1f8>)
    3270:	4b23      	ldr	r3, [pc, #140]	; (3300 <handle_usb_command+0x1d8>)
    3272:	4798      	blx	r3
}
    3274:	e797      	b.n	31a6 <handle_usb_command+0x7e>
		usb_serial_write("\r\n\n\n", 4);
    3276:	2104      	movs	r1, #4
    3278:	482a      	ldr	r0, [pc, #168]	; (3324 <handle_usb_command+0x1fc>)
    327a:	4c21      	ldr	r4, [pc, #132]	; (3300 <handle_usb_command+0x1d8>)
    327c:	47a0      	blx	r4
		usb_serial_write("*******************************************\r\n", 45);
    327e:	212d      	movs	r1, #45	; 0x2d
    3280:	4829      	ldr	r0, [pc, #164]	; (3328 <handle_usb_command+0x200>)
    3282:	47a0      	blx	r4
		usb_serial_write(" __   __  _______  ___      _______ \r\n", 38);
    3284:	2126      	movs	r1, #38	; 0x26
    3286:	4829      	ldr	r0, [pc, #164]	; (332c <handle_usb_command+0x204>)
    3288:	47a0      	blx	r4
		usb_serial_write("|  | |  ||       ||   |    |       |\r\n", 38);
    328a:	2126      	movs	r1, #38	; 0x26
    328c:	4828      	ldr	r0, [pc, #160]	; (3330 <handle_usb_command+0x208>)
    328e:	47a0      	blx	r4
		usb_serial_write("|  |_|  ||    ___||   |    |    _  |\r\n", 38);
    3290:	2126      	movs	r1, #38	; 0x26
    3292:	4828      	ldr	r0, [pc, #160]	; (3334 <handle_usb_command+0x20c>)
    3294:	47a0      	blx	r4
		usb_serial_write("|       ||   |___ |   |    |   |_| |\r\n", 38);
    3296:	2126      	movs	r1, #38	; 0x26
    3298:	4827      	ldr	r0, [pc, #156]	; (3338 <handle_usb_command+0x210>)
    329a:	47a0      	blx	r4
		usb_serial_write("|       ||    ___||   |___ |    ___|\r\n", 38);
    329c:	2126      	movs	r1, #38	; 0x26
    329e:	4827      	ldr	r0, [pc, #156]	; (333c <handle_usb_command+0x214>)
    32a0:	47a0      	blx	r4
		usb_serial_write("|   _   ||   |___ |       ||   |    \r\n", 38);
    32a2:	2126      	movs	r1, #38	; 0x26
    32a4:	4826      	ldr	r0, [pc, #152]	; (3340 <handle_usb_command+0x218>)
    32a6:	47a0      	blx	r4
		usb_serial_write("|__| |__||_______||_______||___|    \r\n", 38);
    32a8:	2126      	movs	r1, #38	; 0x26
    32aa:	4826      	ldr	r0, [pc, #152]	; (3344 <handle_usb_command+0x21c>)
    32ac:	47a0      	blx	r4
		usb_serial_write("*******************************************\r\n\n\n", 47);
    32ae:	212f      	movs	r1, #47	; 0x2f
    32b0:	4825      	ldr	r0, [pc, #148]	; (3348 <handle_usb_command+0x220>)
    32b2:	47a0      	blx	r4
		usb_serial_write("Commands:\r\n", 11);
    32b4:	210b      	movs	r1, #11
    32b6:	4825      	ldr	r0, [pc, #148]	; (334c <handle_usb_command+0x224>)
    32b8:	47a0      	blx	r4
		usb_serial_write("SET - Sets the counter to a given value < 1024 (decimal or hex).\r\n", 66);
    32ba:	2142      	movs	r1, #66	; 0x42
    32bc:	4824      	ldr	r0, [pc, #144]	; (3350 <handle_usb_command+0x228>)
    32be:	47a0      	blx	r4
		usb_serial_write("START/COUNT - Starts the counter.\r\n", 35);
    32c0:	2123      	movs	r1, #35	; 0x23
    32c2:	4824      	ldr	r0, [pc, #144]	; (3354 <handle_usb_command+0x22c>)
    32c4:	47a0      	blx	r4
		usb_serial_write("STOP - Stops the counter.\r\n", 27);
    32c6:	211b      	movs	r1, #27
    32c8:	4823      	ldr	r0, [pc, #140]	; (3358 <handle_usb_command+0x230>)
    32ca:	47a0      	blx	r4
		usb_serial_write("SPEED - Sets the count speed (ms) of the binary counter\r\n", 57);
    32cc:	2139      	movs	r1, #57	; 0x39
    32ce:	4823      	ldr	r0, [pc, #140]	; (335c <handle_usb_command+0x234>)
    32d0:	47a0      	blx	r4
    32d2:	e768      	b.n	31a6 <handle_usb_command+0x7e>
    32d4:	000036a5 	.word	0x000036a5
    32d8:	00004150 	.word	0x00004150
    32dc:	00003529 	.word	0x00003529
    32e0:	00004158 	.word	0x00004158
    32e4:	00004160 	.word	0x00004160
    32e8:	00004168 	.word	0x00004168
    32ec:	0000354b 	.word	0x0000354b
    32f0:	0000367d 	.word	0x0000367d
    32f4:	000003ff 	.word	0x000003ff
    32f8:	20000000 	.word	0x20000000
    32fc:	00004128 	.word	0x00004128
    3300:	0000301d 	.word	0x0000301d
    3304:	20000004 	.word	0x20000004
    3308:	00004170 	.word	0x00004170
    330c:	00004178 	.word	0x00004178
    3310:	00004180 	.word	0x00004180
    3314:	20000008 	.word	0x20000008
    3318:	2000059c 	.word	0x2000059c
    331c:	00004188 	.word	0x00004188
    3320:	000043dc 	.word	0x000043dc
    3324:	00004190 	.word	0x00004190
    3328:	00004198 	.word	0x00004198
    332c:	000041c8 	.word	0x000041c8
    3330:	000041f0 	.word	0x000041f0
    3334:	00004218 	.word	0x00004218
    3338:	00004240 	.word	0x00004240
    333c:	00004268 	.word	0x00004268
    3340:	00004290 	.word	0x00004290
    3344:	000042b8 	.word	0x000042b8
    3348:	000042e0 	.word	0x000042e0
    334c:	00004310 	.word	0x00004310
    3350:	0000431c 	.word	0x0000431c
    3354:	00004360 	.word	0x00004360
    3358:	00004384 	.word	0x00004384
    335c:	000043a0 	.word	0x000043a0

00003360 <__udivsi3>:
    3360:	2200      	movs	r2, #0
    3362:	0843      	lsrs	r3, r0, #1
    3364:	428b      	cmp	r3, r1
    3366:	d374      	bcc.n	3452 <__udivsi3+0xf2>
    3368:	0903      	lsrs	r3, r0, #4
    336a:	428b      	cmp	r3, r1
    336c:	d35f      	bcc.n	342e <__udivsi3+0xce>
    336e:	0a03      	lsrs	r3, r0, #8
    3370:	428b      	cmp	r3, r1
    3372:	d344      	bcc.n	33fe <__udivsi3+0x9e>
    3374:	0b03      	lsrs	r3, r0, #12
    3376:	428b      	cmp	r3, r1
    3378:	d328      	bcc.n	33cc <__udivsi3+0x6c>
    337a:	0c03      	lsrs	r3, r0, #16
    337c:	428b      	cmp	r3, r1
    337e:	d30d      	bcc.n	339c <__udivsi3+0x3c>
    3380:	22ff      	movs	r2, #255	; 0xff
    3382:	0209      	lsls	r1, r1, #8
    3384:	ba12      	rev	r2, r2
    3386:	0c03      	lsrs	r3, r0, #16
    3388:	428b      	cmp	r3, r1
    338a:	d302      	bcc.n	3392 <__udivsi3+0x32>
    338c:	1212      	asrs	r2, r2, #8
    338e:	0209      	lsls	r1, r1, #8
    3390:	d065      	beq.n	345e <__udivsi3+0xfe>
    3392:	0b03      	lsrs	r3, r0, #12
    3394:	428b      	cmp	r3, r1
    3396:	d319      	bcc.n	33cc <__udivsi3+0x6c>
    3398:	e000      	b.n	339c <__udivsi3+0x3c>
    339a:	0a09      	lsrs	r1, r1, #8
    339c:	0bc3      	lsrs	r3, r0, #15
    339e:	428b      	cmp	r3, r1
    33a0:	d301      	bcc.n	33a6 <__udivsi3+0x46>
    33a2:	03cb      	lsls	r3, r1, #15
    33a4:	1ac0      	subs	r0, r0, r3
    33a6:	4152      	adcs	r2, r2
    33a8:	0b83      	lsrs	r3, r0, #14
    33aa:	428b      	cmp	r3, r1
    33ac:	d301      	bcc.n	33b2 <__udivsi3+0x52>
    33ae:	038b      	lsls	r3, r1, #14
    33b0:	1ac0      	subs	r0, r0, r3
    33b2:	4152      	adcs	r2, r2
    33b4:	0b43      	lsrs	r3, r0, #13
    33b6:	428b      	cmp	r3, r1
    33b8:	d301      	bcc.n	33be <__udivsi3+0x5e>
    33ba:	034b      	lsls	r3, r1, #13
    33bc:	1ac0      	subs	r0, r0, r3
    33be:	4152      	adcs	r2, r2
    33c0:	0b03      	lsrs	r3, r0, #12
    33c2:	428b      	cmp	r3, r1
    33c4:	d301      	bcc.n	33ca <__udivsi3+0x6a>
    33c6:	030b      	lsls	r3, r1, #12
    33c8:	1ac0      	subs	r0, r0, r3
    33ca:	4152      	adcs	r2, r2
    33cc:	0ac3      	lsrs	r3, r0, #11
    33ce:	428b      	cmp	r3, r1
    33d0:	d301      	bcc.n	33d6 <__udivsi3+0x76>
    33d2:	02cb      	lsls	r3, r1, #11
    33d4:	1ac0      	subs	r0, r0, r3
    33d6:	4152      	adcs	r2, r2
    33d8:	0a83      	lsrs	r3, r0, #10
    33da:	428b      	cmp	r3, r1
    33dc:	d301      	bcc.n	33e2 <__udivsi3+0x82>
    33de:	028b      	lsls	r3, r1, #10
    33e0:	1ac0      	subs	r0, r0, r3
    33e2:	4152      	adcs	r2, r2
    33e4:	0a43      	lsrs	r3, r0, #9
    33e6:	428b      	cmp	r3, r1
    33e8:	d301      	bcc.n	33ee <__udivsi3+0x8e>
    33ea:	024b      	lsls	r3, r1, #9
    33ec:	1ac0      	subs	r0, r0, r3
    33ee:	4152      	adcs	r2, r2
    33f0:	0a03      	lsrs	r3, r0, #8
    33f2:	428b      	cmp	r3, r1
    33f4:	d301      	bcc.n	33fa <__udivsi3+0x9a>
    33f6:	020b      	lsls	r3, r1, #8
    33f8:	1ac0      	subs	r0, r0, r3
    33fa:	4152      	adcs	r2, r2
    33fc:	d2cd      	bcs.n	339a <__udivsi3+0x3a>
    33fe:	09c3      	lsrs	r3, r0, #7
    3400:	428b      	cmp	r3, r1
    3402:	d301      	bcc.n	3408 <__udivsi3+0xa8>
    3404:	01cb      	lsls	r3, r1, #7
    3406:	1ac0      	subs	r0, r0, r3
    3408:	4152      	adcs	r2, r2
    340a:	0983      	lsrs	r3, r0, #6
    340c:	428b      	cmp	r3, r1
    340e:	d301      	bcc.n	3414 <__udivsi3+0xb4>
    3410:	018b      	lsls	r3, r1, #6
    3412:	1ac0      	subs	r0, r0, r3
    3414:	4152      	adcs	r2, r2
    3416:	0943      	lsrs	r3, r0, #5
    3418:	428b      	cmp	r3, r1
    341a:	d301      	bcc.n	3420 <__udivsi3+0xc0>
    341c:	014b      	lsls	r3, r1, #5
    341e:	1ac0      	subs	r0, r0, r3
    3420:	4152      	adcs	r2, r2
    3422:	0903      	lsrs	r3, r0, #4
    3424:	428b      	cmp	r3, r1
    3426:	d301      	bcc.n	342c <__udivsi3+0xcc>
    3428:	010b      	lsls	r3, r1, #4
    342a:	1ac0      	subs	r0, r0, r3
    342c:	4152      	adcs	r2, r2
    342e:	08c3      	lsrs	r3, r0, #3
    3430:	428b      	cmp	r3, r1
    3432:	d301      	bcc.n	3438 <__udivsi3+0xd8>
    3434:	00cb      	lsls	r3, r1, #3
    3436:	1ac0      	subs	r0, r0, r3
    3438:	4152      	adcs	r2, r2
    343a:	0883      	lsrs	r3, r0, #2
    343c:	428b      	cmp	r3, r1
    343e:	d301      	bcc.n	3444 <__udivsi3+0xe4>
    3440:	008b      	lsls	r3, r1, #2
    3442:	1ac0      	subs	r0, r0, r3
    3444:	4152      	adcs	r2, r2
    3446:	0843      	lsrs	r3, r0, #1
    3448:	428b      	cmp	r3, r1
    344a:	d301      	bcc.n	3450 <__udivsi3+0xf0>
    344c:	004b      	lsls	r3, r1, #1
    344e:	1ac0      	subs	r0, r0, r3
    3450:	4152      	adcs	r2, r2
    3452:	1a41      	subs	r1, r0, r1
    3454:	d200      	bcs.n	3458 <__udivsi3+0xf8>
    3456:	4601      	mov	r1, r0
    3458:	4152      	adcs	r2, r2
    345a:	4610      	mov	r0, r2
    345c:	4770      	bx	lr
    345e:	e7ff      	b.n	3460 <__udivsi3+0x100>
    3460:	b501      	push	{r0, lr}
    3462:	2000      	movs	r0, #0
    3464:	f000 f806 	bl	3474 <__aeabi_idiv0>
    3468:	bd02      	pop	{r1, pc}
    346a:	46c0      	nop			; (mov r8, r8)

0000346c <__aeabi_uidivmod>:
    346c:	2900      	cmp	r1, #0
    346e:	d0f7      	beq.n	3460 <__udivsi3+0x100>
    3470:	e776      	b.n	3360 <__udivsi3>
    3472:	4770      	bx	lr

00003474 <__aeabi_idiv0>:
    3474:	4770      	bx	lr
    3476:	46c0      	nop			; (mov r8, r8)

00003478 <__libc_init_array>:
    3478:	b570      	push	{r4, r5, r6, lr}
    347a:	2600      	movs	r6, #0
    347c:	4d0c      	ldr	r5, [pc, #48]	; (34b0 <__libc_init_array+0x38>)
    347e:	4c0d      	ldr	r4, [pc, #52]	; (34b4 <__libc_init_array+0x3c>)
    3480:	1b64      	subs	r4, r4, r5
    3482:	10a4      	asrs	r4, r4, #2
    3484:	42a6      	cmp	r6, r4
    3486:	d109      	bne.n	349c <__libc_init_array+0x24>
    3488:	2600      	movs	r6, #0
    348a:	f001 f879 	bl	4580 <_init>
    348e:	4d0a      	ldr	r5, [pc, #40]	; (34b8 <__libc_init_array+0x40>)
    3490:	4c0a      	ldr	r4, [pc, #40]	; (34bc <__libc_init_array+0x44>)
    3492:	1b64      	subs	r4, r4, r5
    3494:	10a4      	asrs	r4, r4, #2
    3496:	42a6      	cmp	r6, r4
    3498:	d105      	bne.n	34a6 <__libc_init_array+0x2e>
    349a:	bd70      	pop	{r4, r5, r6, pc}
    349c:	00b3      	lsls	r3, r6, #2
    349e:	58eb      	ldr	r3, [r5, r3]
    34a0:	4798      	blx	r3
    34a2:	3601      	adds	r6, #1
    34a4:	e7ee      	b.n	3484 <__libc_init_array+0xc>
    34a6:	00b3      	lsls	r3, r6, #2
    34a8:	58eb      	ldr	r3, [r5, r3]
    34aa:	4798      	blx	r3
    34ac:	3601      	adds	r6, #1
    34ae:	e7f2      	b.n	3496 <__libc_init_array+0x1e>
    34b0:	0000458c 	.word	0x0000458c
    34b4:	0000458c 	.word	0x0000458c
    34b8:	0000458c 	.word	0x0000458c
    34bc:	00004590 	.word	0x00004590

000034c0 <memcpy>:
    34c0:	2300      	movs	r3, #0
    34c2:	b510      	push	{r4, lr}
    34c4:	429a      	cmp	r2, r3
    34c6:	d100      	bne.n	34ca <memcpy+0xa>
    34c8:	bd10      	pop	{r4, pc}
    34ca:	5ccc      	ldrb	r4, [r1, r3]
    34cc:	54c4      	strb	r4, [r0, r3]
    34ce:	3301      	adds	r3, #1
    34d0:	e7f8      	b.n	34c4 <memcpy+0x4>

000034d2 <memset>:
    34d2:	0003      	movs	r3, r0
    34d4:	1882      	adds	r2, r0, r2
    34d6:	4293      	cmp	r3, r2
    34d8:	d100      	bne.n	34dc <memset+0xa>
    34da:	4770      	bx	lr
    34dc:	7019      	strb	r1, [r3, #0]
    34de:	3301      	adds	r3, #1
    34e0:	e7f9      	b.n	34d6 <memset+0x4>
	...

000034e4 <siprintf>:
    34e4:	b40e      	push	{r1, r2, r3}
    34e6:	b510      	push	{r4, lr}
    34e8:	b09d      	sub	sp, #116	; 0x74
    34ea:	a902      	add	r1, sp, #8
    34ec:	9002      	str	r0, [sp, #8]
    34ee:	6108      	str	r0, [r1, #16]
    34f0:	480b      	ldr	r0, [pc, #44]	; (3520 <siprintf+0x3c>)
    34f2:	2482      	movs	r4, #130	; 0x82
    34f4:	6088      	str	r0, [r1, #8]
    34f6:	6148      	str	r0, [r1, #20]
    34f8:	2001      	movs	r0, #1
    34fa:	4240      	negs	r0, r0
    34fc:	ab1f      	add	r3, sp, #124	; 0x7c
    34fe:	81c8      	strh	r0, [r1, #14]
    3500:	4808      	ldr	r0, [pc, #32]	; (3524 <siprintf+0x40>)
    3502:	cb04      	ldmia	r3!, {r2}
    3504:	00a4      	lsls	r4, r4, #2
    3506:	6800      	ldr	r0, [r0, #0]
    3508:	9301      	str	r3, [sp, #4]
    350a:	818c      	strh	r4, [r1, #12]
    350c:	f000 f9ba 	bl	3884 <_svfiprintf_r>
    3510:	2300      	movs	r3, #0
    3512:	9a02      	ldr	r2, [sp, #8]
    3514:	7013      	strb	r3, [r2, #0]
    3516:	b01d      	add	sp, #116	; 0x74
    3518:	bc10      	pop	{r4}
    351a:	bc08      	pop	{r3}
    351c:	b003      	add	sp, #12
    351e:	4718      	bx	r3
    3520:	7fffffff 	.word	0x7fffffff
    3524:	20000078 	.word	0x20000078

00003528 <strcmp>:
    3528:	7802      	ldrb	r2, [r0, #0]
    352a:	780b      	ldrb	r3, [r1, #0]
    352c:	2a00      	cmp	r2, #0
    352e:	d003      	beq.n	3538 <strcmp+0x10>
    3530:	3001      	adds	r0, #1
    3532:	3101      	adds	r1, #1
    3534:	429a      	cmp	r2, r3
    3536:	d0f7      	beq.n	3528 <strcmp>
    3538:	1ad0      	subs	r0, r2, r3
    353a:	4770      	bx	lr

0000353c <strlen>:
    353c:	2300      	movs	r3, #0
    353e:	5cc2      	ldrb	r2, [r0, r3]
    3540:	3301      	adds	r3, #1
    3542:	2a00      	cmp	r2, #0
    3544:	d1fb      	bne.n	353e <strlen+0x2>
    3546:	1e58      	subs	r0, r3, #1
    3548:	4770      	bx	lr

0000354a <strncmp>:
    354a:	2300      	movs	r3, #0
    354c:	b530      	push	{r4, r5, lr}
    354e:	429a      	cmp	r2, r3
    3550:	d00a      	beq.n	3568 <strncmp+0x1e>
    3552:	3a01      	subs	r2, #1
    3554:	5cc4      	ldrb	r4, [r0, r3]
    3556:	5ccd      	ldrb	r5, [r1, r3]
    3558:	42ac      	cmp	r4, r5
    355a:	d104      	bne.n	3566 <strncmp+0x1c>
    355c:	429a      	cmp	r2, r3
    355e:	d002      	beq.n	3566 <strncmp+0x1c>
    3560:	3301      	adds	r3, #1
    3562:	2c00      	cmp	r4, #0
    3564:	d1f6      	bne.n	3554 <strncmp+0xa>
    3566:	1b63      	subs	r3, r4, r5
    3568:	0018      	movs	r0, r3
    356a:	bd30      	pop	{r4, r5, pc}

0000356c <_strtoul_l.isra.0>:
    356c:	b5f0      	push	{r4, r5, r6, r7, lr}
    356e:	001f      	movs	r7, r3
    3570:	000e      	movs	r6, r1
    3572:	b087      	sub	sp, #28
    3574:	9005      	str	r0, [sp, #20]
    3576:	9103      	str	r1, [sp, #12]
    3578:	9201      	str	r2, [sp, #4]
    357a:	980c      	ldr	r0, [sp, #48]	; 0x30
    357c:	7834      	ldrb	r4, [r6, #0]
    357e:	f000 f89e 	bl	36be <__locale_ctype_ptr_l>
    3582:	2208      	movs	r2, #8
    3584:	1900      	adds	r0, r0, r4
    3586:	7843      	ldrb	r3, [r0, #1]
    3588:	1c75      	adds	r5, r6, #1
    358a:	4013      	ands	r3, r2
    358c:	d10c      	bne.n	35a8 <_strtoul_l.isra.0+0x3c>
    358e:	2c2d      	cmp	r4, #45	; 0x2d
    3590:	d10c      	bne.n	35ac <_strtoul_l.isra.0+0x40>
    3592:	3301      	adds	r3, #1
    3594:	782c      	ldrb	r4, [r5, #0]
    3596:	9302      	str	r3, [sp, #8]
    3598:	1cb5      	adds	r5, r6, #2
    359a:	2f00      	cmp	r7, #0
    359c:	d00c      	beq.n	35b8 <_strtoul_l.isra.0+0x4c>
    359e:	2f10      	cmp	r7, #16
    35a0:	d114      	bne.n	35cc <_strtoul_l.isra.0+0x60>
    35a2:	2c30      	cmp	r4, #48	; 0x30
    35a4:	d00a      	beq.n	35bc <_strtoul_l.isra.0+0x50>
    35a6:	e011      	b.n	35cc <_strtoul_l.isra.0+0x60>
    35a8:	002e      	movs	r6, r5
    35aa:	e7e6      	b.n	357a <_strtoul_l.isra.0+0xe>
    35ac:	9302      	str	r3, [sp, #8]
    35ae:	2c2b      	cmp	r4, #43	; 0x2b
    35b0:	d1f3      	bne.n	359a <_strtoul_l.isra.0+0x2e>
    35b2:	782c      	ldrb	r4, [r5, #0]
    35b4:	1cb5      	adds	r5, r6, #2
    35b6:	e7f0      	b.n	359a <_strtoul_l.isra.0+0x2e>
    35b8:	2c30      	cmp	r4, #48	; 0x30
    35ba:	d12f      	bne.n	361c <_strtoul_l.isra.0+0xb0>
    35bc:	2220      	movs	r2, #32
    35be:	782b      	ldrb	r3, [r5, #0]
    35c0:	4393      	bics	r3, r2
    35c2:	2b58      	cmp	r3, #88	; 0x58
    35c4:	d154      	bne.n	3670 <_strtoul_l.isra.0+0x104>
    35c6:	2710      	movs	r7, #16
    35c8:	786c      	ldrb	r4, [r5, #1]
    35ca:	3502      	adds	r5, #2
    35cc:	2001      	movs	r0, #1
    35ce:	0039      	movs	r1, r7
    35d0:	4240      	negs	r0, r0
    35d2:	f7ff fec5 	bl	3360 <__udivsi3>
    35d6:	0006      	movs	r6, r0
    35d8:	2001      	movs	r0, #1
    35da:	0039      	movs	r1, r7
    35dc:	4240      	negs	r0, r0
    35de:	f7ff ff45 	bl	346c <__aeabi_uidivmod>
    35e2:	2300      	movs	r3, #0
    35e4:	9104      	str	r1, [sp, #16]
    35e6:	2101      	movs	r1, #1
    35e8:	2201      	movs	r2, #1
    35ea:	0018      	movs	r0, r3
    35ec:	468c      	mov	ip, r1
    35ee:	4252      	negs	r2, r2
    35f0:	0021      	movs	r1, r4
    35f2:	3930      	subs	r1, #48	; 0x30
    35f4:	2909      	cmp	r1, #9
    35f6:	d813      	bhi.n	3620 <_strtoul_l.isra.0+0xb4>
    35f8:	000c      	movs	r4, r1
    35fa:	42a7      	cmp	r7, r4
    35fc:	dd1e      	ble.n	363c <_strtoul_l.isra.0+0xd0>
    35fe:	2b00      	cmp	r3, #0
    3600:	db1a      	blt.n	3638 <_strtoul_l.isra.0+0xcc>
    3602:	0013      	movs	r3, r2
    3604:	4286      	cmp	r6, r0
    3606:	d306      	bcc.n	3616 <_strtoul_l.isra.0+0xaa>
    3608:	d102      	bne.n	3610 <_strtoul_l.isra.0+0xa4>
    360a:	9904      	ldr	r1, [sp, #16]
    360c:	42a1      	cmp	r1, r4
    360e:	db02      	blt.n	3616 <_strtoul_l.isra.0+0xaa>
    3610:	4663      	mov	r3, ip
    3612:	4378      	muls	r0, r7
    3614:	1820      	adds	r0, r4, r0
    3616:	782c      	ldrb	r4, [r5, #0]
    3618:	3501      	adds	r5, #1
    361a:	e7e9      	b.n	35f0 <_strtoul_l.isra.0+0x84>
    361c:	270a      	movs	r7, #10
    361e:	e7d5      	b.n	35cc <_strtoul_l.isra.0+0x60>
    3620:	0021      	movs	r1, r4
    3622:	3941      	subs	r1, #65	; 0x41
    3624:	2919      	cmp	r1, #25
    3626:	d801      	bhi.n	362c <_strtoul_l.isra.0+0xc0>
    3628:	3c37      	subs	r4, #55	; 0x37
    362a:	e7e6      	b.n	35fa <_strtoul_l.isra.0+0x8e>
    362c:	0021      	movs	r1, r4
    362e:	3961      	subs	r1, #97	; 0x61
    3630:	2919      	cmp	r1, #25
    3632:	d803      	bhi.n	363c <_strtoul_l.isra.0+0xd0>
    3634:	3c57      	subs	r4, #87	; 0x57
    3636:	e7e0      	b.n	35fa <_strtoul_l.isra.0+0x8e>
    3638:	0013      	movs	r3, r2
    363a:	e7ec      	b.n	3616 <_strtoul_l.isra.0+0xaa>
    363c:	2b00      	cmp	r3, #0
    363e:	da09      	bge.n	3654 <_strtoul_l.isra.0+0xe8>
    3640:	2322      	movs	r3, #34	; 0x22
    3642:	2001      	movs	r0, #1
    3644:	9a05      	ldr	r2, [sp, #20]
    3646:	4240      	negs	r0, r0
    3648:	6013      	str	r3, [r2, #0]
    364a:	9b01      	ldr	r3, [sp, #4]
    364c:	2b00      	cmp	r3, #0
    364e:	d10b      	bne.n	3668 <_strtoul_l.isra.0+0xfc>
    3650:	b007      	add	sp, #28
    3652:	bdf0      	pop	{r4, r5, r6, r7, pc}
    3654:	9a02      	ldr	r2, [sp, #8]
    3656:	2a00      	cmp	r2, #0
    3658:	d000      	beq.n	365c <_strtoul_l.isra.0+0xf0>
    365a:	4240      	negs	r0, r0
    365c:	9a01      	ldr	r2, [sp, #4]
    365e:	2a00      	cmp	r2, #0
    3660:	d0f6      	beq.n	3650 <_strtoul_l.isra.0+0xe4>
    3662:	9a03      	ldr	r2, [sp, #12]
    3664:	2b00      	cmp	r3, #0
    3666:	d000      	beq.n	366a <_strtoul_l.isra.0+0xfe>
    3668:	1e6a      	subs	r2, r5, #1
    366a:	9b01      	ldr	r3, [sp, #4]
    366c:	601a      	str	r2, [r3, #0]
    366e:	e7ef      	b.n	3650 <_strtoul_l.isra.0+0xe4>
    3670:	2430      	movs	r4, #48	; 0x30
    3672:	2f00      	cmp	r7, #0
    3674:	d1aa      	bne.n	35cc <_strtoul_l.isra.0+0x60>
    3676:	3708      	adds	r7, #8
    3678:	e7a8      	b.n	35cc <_strtoul_l.isra.0+0x60>
	...

0000367c <strtoul>:
    367c:	b537      	push	{r0, r1, r2, r4, r5, lr}
    367e:	0013      	movs	r3, r2
    3680:	4a06      	ldr	r2, [pc, #24]	; (369c <strtoul+0x20>)
    3682:	0005      	movs	r5, r0
    3684:	6810      	ldr	r0, [r2, #0]
    3686:	6a04      	ldr	r4, [r0, #32]
    3688:	2c00      	cmp	r4, #0
    368a:	d100      	bne.n	368e <strtoul+0x12>
    368c:	4c04      	ldr	r4, [pc, #16]	; (36a0 <strtoul+0x24>)
    368e:	000a      	movs	r2, r1
    3690:	9400      	str	r4, [sp, #0]
    3692:	0029      	movs	r1, r5
    3694:	f7ff ff6a 	bl	356c <_strtoul_l.isra.0>
    3698:	bd3e      	pop	{r1, r2, r3, r4, r5, pc}
    369a:	46c0      	nop			; (mov r8, r8)
    369c:	20000078 	.word	0x20000078
    36a0:	200000dc 	.word	0x200000dc

000036a4 <toupper>:
    36a4:	b510      	push	{r4, lr}
    36a6:	0004      	movs	r4, r0
    36a8:	f000 f80c 	bl	36c4 <__locale_ctype_ptr>
    36ac:	2203      	movs	r2, #3
    36ae:	1900      	adds	r0, r0, r4
    36b0:	7843      	ldrb	r3, [r0, #1]
    36b2:	4013      	ands	r3, r2
    36b4:	2b02      	cmp	r3, #2
    36b6:	d100      	bne.n	36ba <toupper+0x16>
    36b8:	3c20      	subs	r4, #32
    36ba:	0020      	movs	r0, r4
    36bc:	bd10      	pop	{r4, pc}

000036be <__locale_ctype_ptr_l>:
    36be:	30ec      	adds	r0, #236	; 0xec
    36c0:	6800      	ldr	r0, [r0, #0]
    36c2:	4770      	bx	lr

000036c4 <__locale_ctype_ptr>:
    36c4:	4b04      	ldr	r3, [pc, #16]	; (36d8 <__locale_ctype_ptr+0x14>)
    36c6:	681b      	ldr	r3, [r3, #0]
    36c8:	6a1b      	ldr	r3, [r3, #32]
    36ca:	2b00      	cmp	r3, #0
    36cc:	d100      	bne.n	36d0 <__locale_ctype_ptr+0xc>
    36ce:	4b03      	ldr	r3, [pc, #12]	; (36dc <__locale_ctype_ptr+0x18>)
    36d0:	33ec      	adds	r3, #236	; 0xec
    36d2:	6818      	ldr	r0, [r3, #0]
    36d4:	4770      	bx	lr
    36d6:	46c0      	nop			; (mov r8, r8)
    36d8:	20000078 	.word	0x20000078
    36dc:	200000dc 	.word	0x200000dc

000036e0 <__ascii_mbtowc>:
    36e0:	b082      	sub	sp, #8
    36e2:	2900      	cmp	r1, #0
    36e4:	d100      	bne.n	36e8 <__ascii_mbtowc+0x8>
    36e6:	a901      	add	r1, sp, #4
    36e8:	1e10      	subs	r0, r2, #0
    36ea:	d006      	beq.n	36fa <__ascii_mbtowc+0x1a>
    36ec:	2b00      	cmp	r3, #0
    36ee:	d006      	beq.n	36fe <__ascii_mbtowc+0x1e>
    36f0:	7813      	ldrb	r3, [r2, #0]
    36f2:	600b      	str	r3, [r1, #0]
    36f4:	7810      	ldrb	r0, [r2, #0]
    36f6:	1e43      	subs	r3, r0, #1
    36f8:	4198      	sbcs	r0, r3
    36fa:	b002      	add	sp, #8
    36fc:	4770      	bx	lr
    36fe:	2002      	movs	r0, #2
    3700:	4240      	negs	r0, r0
    3702:	e7fa      	b.n	36fa <__ascii_mbtowc+0x1a>

00003704 <_malloc_r>:
    3704:	2303      	movs	r3, #3
    3706:	b570      	push	{r4, r5, r6, lr}
    3708:	1ccd      	adds	r5, r1, #3
    370a:	439d      	bics	r5, r3
    370c:	3508      	adds	r5, #8
    370e:	0006      	movs	r6, r0
    3710:	2d0c      	cmp	r5, #12
    3712:	d21e      	bcs.n	3752 <_malloc_r+0x4e>
    3714:	250c      	movs	r5, #12
    3716:	42a9      	cmp	r1, r5
    3718:	d81d      	bhi.n	3756 <_malloc_r+0x52>
    371a:	0030      	movs	r0, r6
    371c:	f000 fb79 	bl	3e12 <__malloc_lock>
    3720:	4a25      	ldr	r2, [pc, #148]	; (37b8 <_malloc_r+0xb4>)
    3722:	6814      	ldr	r4, [r2, #0]
    3724:	0021      	movs	r1, r4
    3726:	2900      	cmp	r1, #0
    3728:	d119      	bne.n	375e <_malloc_r+0x5a>
    372a:	4c24      	ldr	r4, [pc, #144]	; (37bc <_malloc_r+0xb8>)
    372c:	6823      	ldr	r3, [r4, #0]
    372e:	2b00      	cmp	r3, #0
    3730:	d103      	bne.n	373a <_malloc_r+0x36>
    3732:	0030      	movs	r0, r6
    3734:	f000 fb32 	bl	3d9c <_sbrk_r>
    3738:	6020      	str	r0, [r4, #0]
    373a:	0029      	movs	r1, r5
    373c:	0030      	movs	r0, r6
    373e:	f000 fb2d 	bl	3d9c <_sbrk_r>
    3742:	1c43      	adds	r3, r0, #1
    3744:	d12c      	bne.n	37a0 <_malloc_r+0x9c>
    3746:	230c      	movs	r3, #12
    3748:	0030      	movs	r0, r6
    374a:	6033      	str	r3, [r6, #0]
    374c:	f000 fb62 	bl	3e14 <__malloc_unlock>
    3750:	e003      	b.n	375a <_malloc_r+0x56>
    3752:	2d00      	cmp	r5, #0
    3754:	dadf      	bge.n	3716 <_malloc_r+0x12>
    3756:	230c      	movs	r3, #12
    3758:	6033      	str	r3, [r6, #0]
    375a:	2000      	movs	r0, #0
    375c:	bd70      	pop	{r4, r5, r6, pc}
    375e:	680b      	ldr	r3, [r1, #0]
    3760:	1b5b      	subs	r3, r3, r5
    3762:	d41a      	bmi.n	379a <_malloc_r+0x96>
    3764:	2b0b      	cmp	r3, #11
    3766:	d903      	bls.n	3770 <_malloc_r+0x6c>
    3768:	600b      	str	r3, [r1, #0]
    376a:	18cc      	adds	r4, r1, r3
    376c:	6025      	str	r5, [r4, #0]
    376e:	e003      	b.n	3778 <_malloc_r+0x74>
    3770:	428c      	cmp	r4, r1
    3772:	d10e      	bne.n	3792 <_malloc_r+0x8e>
    3774:	6863      	ldr	r3, [r4, #4]
    3776:	6013      	str	r3, [r2, #0]
    3778:	0030      	movs	r0, r6
    377a:	f000 fb4b 	bl	3e14 <__malloc_unlock>
    377e:	0020      	movs	r0, r4
    3780:	2207      	movs	r2, #7
    3782:	300b      	adds	r0, #11
    3784:	1d23      	adds	r3, r4, #4
    3786:	4390      	bics	r0, r2
    3788:	1ac3      	subs	r3, r0, r3
    378a:	d0e7      	beq.n	375c <_malloc_r+0x58>
    378c:	425a      	negs	r2, r3
    378e:	50e2      	str	r2, [r4, r3]
    3790:	e7e4      	b.n	375c <_malloc_r+0x58>
    3792:	684b      	ldr	r3, [r1, #4]
    3794:	6063      	str	r3, [r4, #4]
    3796:	000c      	movs	r4, r1
    3798:	e7ee      	b.n	3778 <_malloc_r+0x74>
    379a:	000c      	movs	r4, r1
    379c:	6849      	ldr	r1, [r1, #4]
    379e:	e7c2      	b.n	3726 <_malloc_r+0x22>
    37a0:	2303      	movs	r3, #3
    37a2:	1cc4      	adds	r4, r0, #3
    37a4:	439c      	bics	r4, r3
    37a6:	42a0      	cmp	r0, r4
    37a8:	d0e0      	beq.n	376c <_malloc_r+0x68>
    37aa:	1a21      	subs	r1, r4, r0
    37ac:	0030      	movs	r0, r6
    37ae:	f000 faf5 	bl	3d9c <_sbrk_r>
    37b2:	1c43      	adds	r3, r0, #1
    37b4:	d1da      	bne.n	376c <_malloc_r+0x68>
    37b6:	e7c6      	b.n	3746 <_malloc_r+0x42>
    37b8:	200005f4 	.word	0x200005f4
    37bc:	200005f8 	.word	0x200005f8

000037c0 <__ssputs_r>:
    37c0:	b5f0      	push	{r4, r5, r6, r7, lr}
    37c2:	688e      	ldr	r6, [r1, #8]
    37c4:	b085      	sub	sp, #20
    37c6:	0007      	movs	r7, r0
    37c8:	000c      	movs	r4, r1
    37ca:	9203      	str	r2, [sp, #12]
    37cc:	9301      	str	r3, [sp, #4]
    37ce:	429e      	cmp	r6, r3
    37d0:	d839      	bhi.n	3846 <__ssputs_r+0x86>
    37d2:	2390      	movs	r3, #144	; 0x90
    37d4:	898a      	ldrh	r2, [r1, #12]
    37d6:	00db      	lsls	r3, r3, #3
    37d8:	421a      	tst	r2, r3
    37da:	d034      	beq.n	3846 <__ssputs_r+0x86>
    37dc:	2503      	movs	r5, #3
    37de:	6909      	ldr	r1, [r1, #16]
    37e0:	6823      	ldr	r3, [r4, #0]
    37e2:	1a5b      	subs	r3, r3, r1
    37e4:	9302      	str	r3, [sp, #8]
    37e6:	6963      	ldr	r3, [r4, #20]
    37e8:	9802      	ldr	r0, [sp, #8]
    37ea:	435d      	muls	r5, r3
    37ec:	0feb      	lsrs	r3, r5, #31
    37ee:	195d      	adds	r5, r3, r5
    37f0:	9b01      	ldr	r3, [sp, #4]
    37f2:	106d      	asrs	r5, r5, #1
    37f4:	3301      	adds	r3, #1
    37f6:	181b      	adds	r3, r3, r0
    37f8:	42ab      	cmp	r3, r5
    37fa:	d900      	bls.n	37fe <__ssputs_r+0x3e>
    37fc:	001d      	movs	r5, r3
    37fe:	0553      	lsls	r3, r2, #21
    3800:	d532      	bpl.n	3868 <__ssputs_r+0xa8>
    3802:	0029      	movs	r1, r5
    3804:	0038      	movs	r0, r7
    3806:	f7ff ff7d 	bl	3704 <_malloc_r>
    380a:	1e06      	subs	r6, r0, #0
    380c:	d109      	bne.n	3822 <__ssputs_r+0x62>
    380e:	230c      	movs	r3, #12
    3810:	603b      	str	r3, [r7, #0]
    3812:	2340      	movs	r3, #64	; 0x40
    3814:	2001      	movs	r0, #1
    3816:	89a2      	ldrh	r2, [r4, #12]
    3818:	4240      	negs	r0, r0
    381a:	4313      	orrs	r3, r2
    381c:	81a3      	strh	r3, [r4, #12]
    381e:	b005      	add	sp, #20
    3820:	bdf0      	pop	{r4, r5, r6, r7, pc}
    3822:	9a02      	ldr	r2, [sp, #8]
    3824:	6921      	ldr	r1, [r4, #16]
    3826:	f7ff fe4b 	bl	34c0 <memcpy>
    382a:	89a3      	ldrh	r3, [r4, #12]
    382c:	4a14      	ldr	r2, [pc, #80]	; (3880 <__ssputs_r+0xc0>)
    382e:	401a      	ands	r2, r3
    3830:	2380      	movs	r3, #128	; 0x80
    3832:	4313      	orrs	r3, r2
    3834:	81a3      	strh	r3, [r4, #12]
    3836:	9b02      	ldr	r3, [sp, #8]
    3838:	6126      	str	r6, [r4, #16]
    383a:	18f6      	adds	r6, r6, r3
    383c:	6026      	str	r6, [r4, #0]
    383e:	6165      	str	r5, [r4, #20]
    3840:	9e01      	ldr	r6, [sp, #4]
    3842:	1aed      	subs	r5, r5, r3
    3844:	60a5      	str	r5, [r4, #8]
    3846:	9b01      	ldr	r3, [sp, #4]
    3848:	42b3      	cmp	r3, r6
    384a:	d200      	bcs.n	384e <__ssputs_r+0x8e>
    384c:	001e      	movs	r6, r3
    384e:	0032      	movs	r2, r6
    3850:	9903      	ldr	r1, [sp, #12]
    3852:	6820      	ldr	r0, [r4, #0]
    3854:	f000 facb 	bl	3dee <memmove>
    3858:	68a3      	ldr	r3, [r4, #8]
    385a:	2000      	movs	r0, #0
    385c:	1b9b      	subs	r3, r3, r6
    385e:	60a3      	str	r3, [r4, #8]
    3860:	6823      	ldr	r3, [r4, #0]
    3862:	199e      	adds	r6, r3, r6
    3864:	6026      	str	r6, [r4, #0]
    3866:	e7da      	b.n	381e <__ssputs_r+0x5e>
    3868:	002a      	movs	r2, r5
    386a:	0038      	movs	r0, r7
    386c:	f000 fb1e 	bl	3eac <_realloc_r>
    3870:	1e06      	subs	r6, r0, #0
    3872:	d1e0      	bne.n	3836 <__ssputs_r+0x76>
    3874:	6921      	ldr	r1, [r4, #16]
    3876:	0038      	movs	r0, r7
    3878:	f000 face 	bl	3e18 <_free_r>
    387c:	e7c7      	b.n	380e <__ssputs_r+0x4e>
    387e:	46c0      	nop			; (mov r8, r8)
    3880:	fffffb7f 	.word	0xfffffb7f

00003884 <_svfiprintf_r>:
    3884:	b5f0      	push	{r4, r5, r6, r7, lr}
    3886:	b09f      	sub	sp, #124	; 0x7c
    3888:	9002      	str	r0, [sp, #8]
    388a:	9305      	str	r3, [sp, #20]
    388c:	898b      	ldrh	r3, [r1, #12]
    388e:	000f      	movs	r7, r1
    3890:	0016      	movs	r6, r2
    3892:	061b      	lsls	r3, r3, #24
    3894:	d511      	bpl.n	38ba <_svfiprintf_r+0x36>
    3896:	690b      	ldr	r3, [r1, #16]
    3898:	2b00      	cmp	r3, #0
    389a:	d10e      	bne.n	38ba <_svfiprintf_r+0x36>
    389c:	2140      	movs	r1, #64	; 0x40
    389e:	f7ff ff31 	bl	3704 <_malloc_r>
    38a2:	6038      	str	r0, [r7, #0]
    38a4:	6138      	str	r0, [r7, #16]
    38a6:	2800      	cmp	r0, #0
    38a8:	d105      	bne.n	38b6 <_svfiprintf_r+0x32>
    38aa:	230c      	movs	r3, #12
    38ac:	9a02      	ldr	r2, [sp, #8]
    38ae:	3801      	subs	r0, #1
    38b0:	6013      	str	r3, [r2, #0]
    38b2:	b01f      	add	sp, #124	; 0x7c
    38b4:	bdf0      	pop	{r4, r5, r6, r7, pc}
    38b6:	2340      	movs	r3, #64	; 0x40
    38b8:	617b      	str	r3, [r7, #20]
    38ba:	2300      	movs	r3, #0
    38bc:	ad06      	add	r5, sp, #24
    38be:	616b      	str	r3, [r5, #20]
    38c0:	3320      	adds	r3, #32
    38c2:	766b      	strb	r3, [r5, #25]
    38c4:	3310      	adds	r3, #16
    38c6:	76ab      	strb	r3, [r5, #26]
    38c8:	0034      	movs	r4, r6
    38ca:	7823      	ldrb	r3, [r4, #0]
    38cc:	2b00      	cmp	r3, #0
    38ce:	d147      	bne.n	3960 <_svfiprintf_r+0xdc>
    38d0:	1ba3      	subs	r3, r4, r6
    38d2:	9304      	str	r3, [sp, #16]
    38d4:	d00d      	beq.n	38f2 <_svfiprintf_r+0x6e>
    38d6:	1ba3      	subs	r3, r4, r6
    38d8:	0032      	movs	r2, r6
    38da:	0039      	movs	r1, r7
    38dc:	9802      	ldr	r0, [sp, #8]
    38de:	f7ff ff6f 	bl	37c0 <__ssputs_r>
    38e2:	1c43      	adds	r3, r0, #1
    38e4:	d100      	bne.n	38e8 <_svfiprintf_r+0x64>
    38e6:	e0b5      	b.n	3a54 <_svfiprintf_r+0x1d0>
    38e8:	696a      	ldr	r2, [r5, #20]
    38ea:	9b04      	ldr	r3, [sp, #16]
    38ec:	4694      	mov	ip, r2
    38ee:	4463      	add	r3, ip
    38f0:	616b      	str	r3, [r5, #20]
    38f2:	7823      	ldrb	r3, [r4, #0]
    38f4:	2b00      	cmp	r3, #0
    38f6:	d100      	bne.n	38fa <_svfiprintf_r+0x76>
    38f8:	e0ac      	b.n	3a54 <_svfiprintf_r+0x1d0>
    38fa:	2201      	movs	r2, #1
    38fc:	2300      	movs	r3, #0
    38fe:	4252      	negs	r2, r2
    3900:	606a      	str	r2, [r5, #4]
    3902:	a902      	add	r1, sp, #8
    3904:	3254      	adds	r2, #84	; 0x54
    3906:	1852      	adds	r2, r2, r1
    3908:	3401      	adds	r4, #1
    390a:	602b      	str	r3, [r5, #0]
    390c:	60eb      	str	r3, [r5, #12]
    390e:	60ab      	str	r3, [r5, #8]
    3910:	7013      	strb	r3, [r2, #0]
    3912:	65ab      	str	r3, [r5, #88]	; 0x58
    3914:	4e58      	ldr	r6, [pc, #352]	; (3a78 <_svfiprintf_r+0x1f4>)
    3916:	2205      	movs	r2, #5
    3918:	7821      	ldrb	r1, [r4, #0]
    391a:	0030      	movs	r0, r6
    391c:	f000 fa5c 	bl	3dd8 <memchr>
    3920:	1c62      	adds	r2, r4, #1
    3922:	2800      	cmp	r0, #0
    3924:	d120      	bne.n	3968 <_svfiprintf_r+0xe4>
    3926:	6829      	ldr	r1, [r5, #0]
    3928:	06cb      	lsls	r3, r1, #27
    392a:	d504      	bpl.n	3936 <_svfiprintf_r+0xb2>
    392c:	2353      	movs	r3, #83	; 0x53
    392e:	ae02      	add	r6, sp, #8
    3930:	3020      	adds	r0, #32
    3932:	199b      	adds	r3, r3, r6
    3934:	7018      	strb	r0, [r3, #0]
    3936:	070b      	lsls	r3, r1, #28
    3938:	d504      	bpl.n	3944 <_svfiprintf_r+0xc0>
    393a:	2353      	movs	r3, #83	; 0x53
    393c:	202b      	movs	r0, #43	; 0x2b
    393e:	ae02      	add	r6, sp, #8
    3940:	199b      	adds	r3, r3, r6
    3942:	7018      	strb	r0, [r3, #0]
    3944:	7823      	ldrb	r3, [r4, #0]
    3946:	2b2a      	cmp	r3, #42	; 0x2a
    3948:	d016      	beq.n	3978 <_svfiprintf_r+0xf4>
    394a:	2000      	movs	r0, #0
    394c:	210a      	movs	r1, #10
    394e:	9b09      	ldr	r3, [sp, #36]	; 0x24
    3950:	7822      	ldrb	r2, [r4, #0]
    3952:	3a30      	subs	r2, #48	; 0x30
    3954:	2a09      	cmp	r2, #9
    3956:	d955      	bls.n	3a04 <_svfiprintf_r+0x180>
    3958:	2800      	cmp	r0, #0
    395a:	d015      	beq.n	3988 <_svfiprintf_r+0x104>
    395c:	9309      	str	r3, [sp, #36]	; 0x24
    395e:	e013      	b.n	3988 <_svfiprintf_r+0x104>
    3960:	2b25      	cmp	r3, #37	; 0x25
    3962:	d0b5      	beq.n	38d0 <_svfiprintf_r+0x4c>
    3964:	3401      	adds	r4, #1
    3966:	e7b0      	b.n	38ca <_svfiprintf_r+0x46>
    3968:	2301      	movs	r3, #1
    396a:	1b80      	subs	r0, r0, r6
    396c:	4083      	lsls	r3, r0
    396e:	6829      	ldr	r1, [r5, #0]
    3970:	0014      	movs	r4, r2
    3972:	430b      	orrs	r3, r1
    3974:	602b      	str	r3, [r5, #0]
    3976:	e7cd      	b.n	3914 <_svfiprintf_r+0x90>
    3978:	9b05      	ldr	r3, [sp, #20]
    397a:	1d18      	adds	r0, r3, #4
    397c:	681b      	ldr	r3, [r3, #0]
    397e:	9005      	str	r0, [sp, #20]
    3980:	2b00      	cmp	r3, #0
    3982:	db39      	blt.n	39f8 <_svfiprintf_r+0x174>
    3984:	9309      	str	r3, [sp, #36]	; 0x24
    3986:	0014      	movs	r4, r2
    3988:	7823      	ldrb	r3, [r4, #0]
    398a:	2b2e      	cmp	r3, #46	; 0x2e
    398c:	d10b      	bne.n	39a6 <_svfiprintf_r+0x122>
    398e:	7863      	ldrb	r3, [r4, #1]
    3990:	1c62      	adds	r2, r4, #1
    3992:	2b2a      	cmp	r3, #42	; 0x2a
    3994:	d13e      	bne.n	3a14 <_svfiprintf_r+0x190>
    3996:	9b05      	ldr	r3, [sp, #20]
    3998:	3402      	adds	r4, #2
    399a:	1d1a      	adds	r2, r3, #4
    399c:	681b      	ldr	r3, [r3, #0]
    399e:	9205      	str	r2, [sp, #20]
    39a0:	2b00      	cmp	r3, #0
    39a2:	db34      	blt.n	3a0e <_svfiprintf_r+0x18a>
    39a4:	9307      	str	r3, [sp, #28]
    39a6:	4e35      	ldr	r6, [pc, #212]	; (3a7c <_svfiprintf_r+0x1f8>)
    39a8:	7821      	ldrb	r1, [r4, #0]
    39aa:	2203      	movs	r2, #3
    39ac:	0030      	movs	r0, r6
    39ae:	f000 fa13 	bl	3dd8 <memchr>
    39b2:	2800      	cmp	r0, #0
    39b4:	d006      	beq.n	39c4 <_svfiprintf_r+0x140>
    39b6:	2340      	movs	r3, #64	; 0x40
    39b8:	1b80      	subs	r0, r0, r6
    39ba:	4083      	lsls	r3, r0
    39bc:	682a      	ldr	r2, [r5, #0]
    39be:	3401      	adds	r4, #1
    39c0:	4313      	orrs	r3, r2
    39c2:	602b      	str	r3, [r5, #0]
    39c4:	7821      	ldrb	r1, [r4, #0]
    39c6:	2206      	movs	r2, #6
    39c8:	482d      	ldr	r0, [pc, #180]	; (3a80 <_svfiprintf_r+0x1fc>)
    39ca:	1c66      	adds	r6, r4, #1
    39cc:	7629      	strb	r1, [r5, #24]
    39ce:	f000 fa03 	bl	3dd8 <memchr>
    39d2:	2800      	cmp	r0, #0
    39d4:	d046      	beq.n	3a64 <_svfiprintf_r+0x1e0>
    39d6:	4b2b      	ldr	r3, [pc, #172]	; (3a84 <_svfiprintf_r+0x200>)
    39d8:	2b00      	cmp	r3, #0
    39da:	d12f      	bne.n	3a3c <_svfiprintf_r+0x1b8>
    39dc:	6829      	ldr	r1, [r5, #0]
    39de:	9b05      	ldr	r3, [sp, #20]
    39e0:	2207      	movs	r2, #7
    39e2:	05c9      	lsls	r1, r1, #23
    39e4:	d528      	bpl.n	3a38 <_svfiprintf_r+0x1b4>
    39e6:	189b      	adds	r3, r3, r2
    39e8:	4393      	bics	r3, r2
    39ea:	3308      	adds	r3, #8
    39ec:	9305      	str	r3, [sp, #20]
    39ee:	696b      	ldr	r3, [r5, #20]
    39f0:	9a03      	ldr	r2, [sp, #12]
    39f2:	189b      	adds	r3, r3, r2
    39f4:	616b      	str	r3, [r5, #20]
    39f6:	e767      	b.n	38c8 <_svfiprintf_r+0x44>
    39f8:	425b      	negs	r3, r3
    39fa:	60eb      	str	r3, [r5, #12]
    39fc:	2302      	movs	r3, #2
    39fe:	430b      	orrs	r3, r1
    3a00:	602b      	str	r3, [r5, #0]
    3a02:	e7c0      	b.n	3986 <_svfiprintf_r+0x102>
    3a04:	434b      	muls	r3, r1
    3a06:	3401      	adds	r4, #1
    3a08:	189b      	adds	r3, r3, r2
    3a0a:	2001      	movs	r0, #1
    3a0c:	e7a0      	b.n	3950 <_svfiprintf_r+0xcc>
    3a0e:	2301      	movs	r3, #1
    3a10:	425b      	negs	r3, r3
    3a12:	e7c7      	b.n	39a4 <_svfiprintf_r+0x120>
    3a14:	2300      	movs	r3, #0
    3a16:	0014      	movs	r4, r2
    3a18:	200a      	movs	r0, #10
    3a1a:	001a      	movs	r2, r3
    3a1c:	606b      	str	r3, [r5, #4]
    3a1e:	7821      	ldrb	r1, [r4, #0]
    3a20:	3930      	subs	r1, #48	; 0x30
    3a22:	2909      	cmp	r1, #9
    3a24:	d903      	bls.n	3a2e <_svfiprintf_r+0x1aa>
    3a26:	2b00      	cmp	r3, #0
    3a28:	d0bd      	beq.n	39a6 <_svfiprintf_r+0x122>
    3a2a:	9207      	str	r2, [sp, #28]
    3a2c:	e7bb      	b.n	39a6 <_svfiprintf_r+0x122>
    3a2e:	4342      	muls	r2, r0
    3a30:	3401      	adds	r4, #1
    3a32:	1852      	adds	r2, r2, r1
    3a34:	2301      	movs	r3, #1
    3a36:	e7f2      	b.n	3a1e <_svfiprintf_r+0x19a>
    3a38:	3307      	adds	r3, #7
    3a3a:	e7d5      	b.n	39e8 <_svfiprintf_r+0x164>
    3a3c:	ab05      	add	r3, sp, #20
    3a3e:	9300      	str	r3, [sp, #0]
    3a40:	003a      	movs	r2, r7
    3a42:	4b11      	ldr	r3, [pc, #68]	; (3a88 <_svfiprintf_r+0x204>)
    3a44:	0029      	movs	r1, r5
    3a46:	9802      	ldr	r0, [sp, #8]
    3a48:	e000      	b.n	3a4c <_svfiprintf_r+0x1c8>
    3a4a:	bf00      	nop
    3a4c:	9003      	str	r0, [sp, #12]
    3a4e:	9b03      	ldr	r3, [sp, #12]
    3a50:	3301      	adds	r3, #1
    3a52:	d1cc      	bne.n	39ee <_svfiprintf_r+0x16a>
    3a54:	89bb      	ldrh	r3, [r7, #12]
    3a56:	980b      	ldr	r0, [sp, #44]	; 0x2c
    3a58:	065b      	lsls	r3, r3, #25
    3a5a:	d400      	bmi.n	3a5e <_svfiprintf_r+0x1da>
    3a5c:	e729      	b.n	38b2 <_svfiprintf_r+0x2e>
    3a5e:	2001      	movs	r0, #1
    3a60:	4240      	negs	r0, r0
    3a62:	e726      	b.n	38b2 <_svfiprintf_r+0x2e>
    3a64:	ab05      	add	r3, sp, #20
    3a66:	9300      	str	r3, [sp, #0]
    3a68:	003a      	movs	r2, r7
    3a6a:	4b07      	ldr	r3, [pc, #28]	; (3a88 <_svfiprintf_r+0x204>)
    3a6c:	0029      	movs	r1, r5
    3a6e:	9802      	ldr	r0, [sp, #8]
    3a70:	f000 f87a 	bl	3b68 <_printf_i>
    3a74:	e7ea      	b.n	3a4c <_svfiprintf_r+0x1c8>
    3a76:	46c0      	nop			; (mov r8, r8)
    3a78:	0000444a 	.word	0x0000444a
    3a7c:	00004450 	.word	0x00004450
    3a80:	00004454 	.word	0x00004454
    3a84:	00000000 	.word	0x00000000
    3a88:	000037c1 	.word	0x000037c1

00003a8c <_printf_common>:
    3a8c:	b5f7      	push	{r0, r1, r2, r4, r5, r6, r7, lr}
    3a8e:	0015      	movs	r5, r2
    3a90:	9301      	str	r3, [sp, #4]
    3a92:	688a      	ldr	r2, [r1, #8]
    3a94:	690b      	ldr	r3, [r1, #16]
    3a96:	9000      	str	r0, [sp, #0]
    3a98:	000c      	movs	r4, r1
    3a9a:	4293      	cmp	r3, r2
    3a9c:	da00      	bge.n	3aa0 <_printf_common+0x14>
    3a9e:	0013      	movs	r3, r2
    3aa0:	0022      	movs	r2, r4
    3aa2:	602b      	str	r3, [r5, #0]
    3aa4:	3243      	adds	r2, #67	; 0x43
    3aa6:	7812      	ldrb	r2, [r2, #0]
    3aa8:	2a00      	cmp	r2, #0
    3aaa:	d001      	beq.n	3ab0 <_printf_common+0x24>
    3aac:	3301      	adds	r3, #1
    3aae:	602b      	str	r3, [r5, #0]
    3ab0:	6823      	ldr	r3, [r4, #0]
    3ab2:	069b      	lsls	r3, r3, #26
    3ab4:	d502      	bpl.n	3abc <_printf_common+0x30>
    3ab6:	682b      	ldr	r3, [r5, #0]
    3ab8:	3302      	adds	r3, #2
    3aba:	602b      	str	r3, [r5, #0]
    3abc:	2706      	movs	r7, #6
    3abe:	6823      	ldr	r3, [r4, #0]
    3ac0:	401f      	ands	r7, r3
    3ac2:	d027      	beq.n	3b14 <_printf_common+0x88>
    3ac4:	0023      	movs	r3, r4
    3ac6:	3343      	adds	r3, #67	; 0x43
    3ac8:	781b      	ldrb	r3, [r3, #0]
    3aca:	1e5a      	subs	r2, r3, #1
    3acc:	4193      	sbcs	r3, r2
    3ace:	6822      	ldr	r2, [r4, #0]
    3ad0:	0692      	lsls	r2, r2, #26
    3ad2:	d430      	bmi.n	3b36 <_printf_common+0xaa>
    3ad4:	0022      	movs	r2, r4
    3ad6:	9901      	ldr	r1, [sp, #4]
    3ad8:	3243      	adds	r2, #67	; 0x43
    3ada:	9800      	ldr	r0, [sp, #0]
    3adc:	9e08      	ldr	r6, [sp, #32]
    3ade:	47b0      	blx	r6
    3ae0:	1c43      	adds	r3, r0, #1
    3ae2:	d025      	beq.n	3b30 <_printf_common+0xa4>
    3ae4:	2306      	movs	r3, #6
    3ae6:	6820      	ldr	r0, [r4, #0]
    3ae8:	682a      	ldr	r2, [r5, #0]
    3aea:	68e1      	ldr	r1, [r4, #12]
    3aec:	4003      	ands	r3, r0
    3aee:	2500      	movs	r5, #0
    3af0:	2b04      	cmp	r3, #4
    3af2:	d103      	bne.n	3afc <_printf_common+0x70>
    3af4:	1a8d      	subs	r5, r1, r2
    3af6:	43eb      	mvns	r3, r5
    3af8:	17db      	asrs	r3, r3, #31
    3afa:	401d      	ands	r5, r3
    3afc:	68a3      	ldr	r3, [r4, #8]
    3afe:	6922      	ldr	r2, [r4, #16]
    3b00:	4293      	cmp	r3, r2
    3b02:	dd01      	ble.n	3b08 <_printf_common+0x7c>
    3b04:	1a9b      	subs	r3, r3, r2
    3b06:	18ed      	adds	r5, r5, r3
    3b08:	2700      	movs	r7, #0
    3b0a:	42bd      	cmp	r5, r7
    3b0c:	d120      	bne.n	3b50 <_printf_common+0xc4>
    3b0e:	2000      	movs	r0, #0
    3b10:	e010      	b.n	3b34 <_printf_common+0xa8>
    3b12:	3701      	adds	r7, #1
    3b14:	68e3      	ldr	r3, [r4, #12]
    3b16:	682a      	ldr	r2, [r5, #0]
    3b18:	1a9b      	subs	r3, r3, r2
    3b1a:	429f      	cmp	r7, r3
    3b1c:	dad2      	bge.n	3ac4 <_printf_common+0x38>
    3b1e:	0022      	movs	r2, r4
    3b20:	2301      	movs	r3, #1
    3b22:	3219      	adds	r2, #25
    3b24:	9901      	ldr	r1, [sp, #4]
    3b26:	9800      	ldr	r0, [sp, #0]
    3b28:	9e08      	ldr	r6, [sp, #32]
    3b2a:	47b0      	blx	r6
    3b2c:	1c43      	adds	r3, r0, #1
    3b2e:	d1f0      	bne.n	3b12 <_printf_common+0x86>
    3b30:	2001      	movs	r0, #1
    3b32:	4240      	negs	r0, r0
    3b34:	bdfe      	pop	{r1, r2, r3, r4, r5, r6, r7, pc}
    3b36:	2030      	movs	r0, #48	; 0x30
    3b38:	18e1      	adds	r1, r4, r3
    3b3a:	3143      	adds	r1, #67	; 0x43
    3b3c:	7008      	strb	r0, [r1, #0]
    3b3e:	0021      	movs	r1, r4
    3b40:	1c5a      	adds	r2, r3, #1
    3b42:	3145      	adds	r1, #69	; 0x45
    3b44:	7809      	ldrb	r1, [r1, #0]
    3b46:	18a2      	adds	r2, r4, r2
    3b48:	3243      	adds	r2, #67	; 0x43
    3b4a:	3302      	adds	r3, #2
    3b4c:	7011      	strb	r1, [r2, #0]
    3b4e:	e7c1      	b.n	3ad4 <_printf_common+0x48>
    3b50:	0022      	movs	r2, r4
    3b52:	2301      	movs	r3, #1
    3b54:	321a      	adds	r2, #26
    3b56:	9901      	ldr	r1, [sp, #4]
    3b58:	9800      	ldr	r0, [sp, #0]
    3b5a:	9e08      	ldr	r6, [sp, #32]
    3b5c:	47b0      	blx	r6
    3b5e:	1c43      	adds	r3, r0, #1
    3b60:	d0e6      	beq.n	3b30 <_printf_common+0xa4>
    3b62:	3701      	adds	r7, #1
    3b64:	e7d1      	b.n	3b0a <_printf_common+0x7e>
	...

00003b68 <_printf_i>:
    3b68:	b5f0      	push	{r4, r5, r6, r7, lr}
    3b6a:	b08b      	sub	sp, #44	; 0x2c
    3b6c:	9206      	str	r2, [sp, #24]
    3b6e:	000a      	movs	r2, r1
    3b70:	3243      	adds	r2, #67	; 0x43
    3b72:	9307      	str	r3, [sp, #28]
    3b74:	9005      	str	r0, [sp, #20]
    3b76:	9204      	str	r2, [sp, #16]
    3b78:	7e0a      	ldrb	r2, [r1, #24]
    3b7a:	000c      	movs	r4, r1
    3b7c:	9b10      	ldr	r3, [sp, #64]	; 0x40
    3b7e:	2a6e      	cmp	r2, #110	; 0x6e
    3b80:	d100      	bne.n	3b84 <_printf_i+0x1c>
    3b82:	e08f      	b.n	3ca4 <_printf_i+0x13c>
    3b84:	d817      	bhi.n	3bb6 <_printf_i+0x4e>
    3b86:	2a63      	cmp	r2, #99	; 0x63
    3b88:	d02c      	beq.n	3be4 <_printf_i+0x7c>
    3b8a:	d808      	bhi.n	3b9e <_printf_i+0x36>
    3b8c:	2a00      	cmp	r2, #0
    3b8e:	d100      	bne.n	3b92 <_printf_i+0x2a>
    3b90:	e099      	b.n	3cc6 <_printf_i+0x15e>
    3b92:	2a58      	cmp	r2, #88	; 0x58
    3b94:	d054      	beq.n	3c40 <_printf_i+0xd8>
    3b96:	0026      	movs	r6, r4
    3b98:	3642      	adds	r6, #66	; 0x42
    3b9a:	7032      	strb	r2, [r6, #0]
    3b9c:	e029      	b.n	3bf2 <_printf_i+0x8a>
    3b9e:	2a64      	cmp	r2, #100	; 0x64
    3ba0:	d001      	beq.n	3ba6 <_printf_i+0x3e>
    3ba2:	2a69      	cmp	r2, #105	; 0x69
    3ba4:	d1f7      	bne.n	3b96 <_printf_i+0x2e>
    3ba6:	6821      	ldr	r1, [r4, #0]
    3ba8:	681a      	ldr	r2, [r3, #0]
    3baa:	0608      	lsls	r0, r1, #24
    3bac:	d523      	bpl.n	3bf6 <_printf_i+0x8e>
    3bae:	1d11      	adds	r1, r2, #4
    3bb0:	6019      	str	r1, [r3, #0]
    3bb2:	6815      	ldr	r5, [r2, #0]
    3bb4:	e025      	b.n	3c02 <_printf_i+0x9a>
    3bb6:	2a73      	cmp	r2, #115	; 0x73
    3bb8:	d100      	bne.n	3bbc <_printf_i+0x54>
    3bba:	e088      	b.n	3cce <_printf_i+0x166>
    3bbc:	d808      	bhi.n	3bd0 <_printf_i+0x68>
    3bbe:	2a6f      	cmp	r2, #111	; 0x6f
    3bc0:	d029      	beq.n	3c16 <_printf_i+0xae>
    3bc2:	2a70      	cmp	r2, #112	; 0x70
    3bc4:	d1e7      	bne.n	3b96 <_printf_i+0x2e>
    3bc6:	2220      	movs	r2, #32
    3bc8:	6809      	ldr	r1, [r1, #0]
    3bca:	430a      	orrs	r2, r1
    3bcc:	6022      	str	r2, [r4, #0]
    3bce:	e003      	b.n	3bd8 <_printf_i+0x70>
    3bd0:	2a75      	cmp	r2, #117	; 0x75
    3bd2:	d020      	beq.n	3c16 <_printf_i+0xae>
    3bd4:	2a78      	cmp	r2, #120	; 0x78
    3bd6:	d1de      	bne.n	3b96 <_printf_i+0x2e>
    3bd8:	0022      	movs	r2, r4
    3bda:	2178      	movs	r1, #120	; 0x78
    3bdc:	3245      	adds	r2, #69	; 0x45
    3bde:	7011      	strb	r1, [r2, #0]
    3be0:	4a6c      	ldr	r2, [pc, #432]	; (3d94 <_printf_i+0x22c>)
    3be2:	e030      	b.n	3c46 <_printf_i+0xde>
    3be4:	000e      	movs	r6, r1
    3be6:	681a      	ldr	r2, [r3, #0]
    3be8:	3642      	adds	r6, #66	; 0x42
    3bea:	1d11      	adds	r1, r2, #4
    3bec:	6019      	str	r1, [r3, #0]
    3bee:	6813      	ldr	r3, [r2, #0]
    3bf0:	7033      	strb	r3, [r6, #0]
    3bf2:	2301      	movs	r3, #1
    3bf4:	e079      	b.n	3cea <_printf_i+0x182>
    3bf6:	0649      	lsls	r1, r1, #25
    3bf8:	d5d9      	bpl.n	3bae <_printf_i+0x46>
    3bfa:	1d11      	adds	r1, r2, #4
    3bfc:	6019      	str	r1, [r3, #0]
    3bfe:	2300      	movs	r3, #0
    3c00:	5ed5      	ldrsh	r5, [r2, r3]
    3c02:	2d00      	cmp	r5, #0
    3c04:	da03      	bge.n	3c0e <_printf_i+0xa6>
    3c06:	232d      	movs	r3, #45	; 0x2d
    3c08:	9a04      	ldr	r2, [sp, #16]
    3c0a:	426d      	negs	r5, r5
    3c0c:	7013      	strb	r3, [r2, #0]
    3c0e:	4b62      	ldr	r3, [pc, #392]	; (3d98 <_printf_i+0x230>)
    3c10:	270a      	movs	r7, #10
    3c12:	9303      	str	r3, [sp, #12]
    3c14:	e02f      	b.n	3c76 <_printf_i+0x10e>
    3c16:	6820      	ldr	r0, [r4, #0]
    3c18:	6819      	ldr	r1, [r3, #0]
    3c1a:	0605      	lsls	r5, r0, #24
    3c1c:	d503      	bpl.n	3c26 <_printf_i+0xbe>
    3c1e:	1d08      	adds	r0, r1, #4
    3c20:	6018      	str	r0, [r3, #0]
    3c22:	680d      	ldr	r5, [r1, #0]
    3c24:	e005      	b.n	3c32 <_printf_i+0xca>
    3c26:	0640      	lsls	r0, r0, #25
    3c28:	d5f9      	bpl.n	3c1e <_printf_i+0xb6>
    3c2a:	680d      	ldr	r5, [r1, #0]
    3c2c:	1d08      	adds	r0, r1, #4
    3c2e:	6018      	str	r0, [r3, #0]
    3c30:	b2ad      	uxth	r5, r5
    3c32:	4b59      	ldr	r3, [pc, #356]	; (3d98 <_printf_i+0x230>)
    3c34:	2708      	movs	r7, #8
    3c36:	9303      	str	r3, [sp, #12]
    3c38:	2a6f      	cmp	r2, #111	; 0x6f
    3c3a:	d018      	beq.n	3c6e <_printf_i+0x106>
    3c3c:	270a      	movs	r7, #10
    3c3e:	e016      	b.n	3c6e <_printf_i+0x106>
    3c40:	3145      	adds	r1, #69	; 0x45
    3c42:	700a      	strb	r2, [r1, #0]
    3c44:	4a54      	ldr	r2, [pc, #336]	; (3d98 <_printf_i+0x230>)
    3c46:	9203      	str	r2, [sp, #12]
    3c48:	681a      	ldr	r2, [r3, #0]
    3c4a:	6821      	ldr	r1, [r4, #0]
    3c4c:	1d10      	adds	r0, r2, #4
    3c4e:	6018      	str	r0, [r3, #0]
    3c50:	6815      	ldr	r5, [r2, #0]
    3c52:	0608      	lsls	r0, r1, #24
    3c54:	d522      	bpl.n	3c9c <_printf_i+0x134>
    3c56:	07cb      	lsls	r3, r1, #31
    3c58:	d502      	bpl.n	3c60 <_printf_i+0xf8>
    3c5a:	2320      	movs	r3, #32
    3c5c:	4319      	orrs	r1, r3
    3c5e:	6021      	str	r1, [r4, #0]
    3c60:	2710      	movs	r7, #16
    3c62:	2d00      	cmp	r5, #0
    3c64:	d103      	bne.n	3c6e <_printf_i+0x106>
    3c66:	2320      	movs	r3, #32
    3c68:	6822      	ldr	r2, [r4, #0]
    3c6a:	439a      	bics	r2, r3
    3c6c:	6022      	str	r2, [r4, #0]
    3c6e:	0023      	movs	r3, r4
    3c70:	2200      	movs	r2, #0
    3c72:	3343      	adds	r3, #67	; 0x43
    3c74:	701a      	strb	r2, [r3, #0]
    3c76:	6863      	ldr	r3, [r4, #4]
    3c78:	60a3      	str	r3, [r4, #8]
    3c7a:	2b00      	cmp	r3, #0
    3c7c:	db5c      	blt.n	3d38 <_printf_i+0x1d0>
    3c7e:	2204      	movs	r2, #4
    3c80:	6821      	ldr	r1, [r4, #0]
    3c82:	4391      	bics	r1, r2
    3c84:	6021      	str	r1, [r4, #0]
    3c86:	2d00      	cmp	r5, #0
    3c88:	d158      	bne.n	3d3c <_printf_i+0x1d4>
    3c8a:	9e04      	ldr	r6, [sp, #16]
    3c8c:	2b00      	cmp	r3, #0
    3c8e:	d064      	beq.n	3d5a <_printf_i+0x1f2>
    3c90:	0026      	movs	r6, r4
    3c92:	9b03      	ldr	r3, [sp, #12]
    3c94:	3642      	adds	r6, #66	; 0x42
    3c96:	781b      	ldrb	r3, [r3, #0]
    3c98:	7033      	strb	r3, [r6, #0]
    3c9a:	e05e      	b.n	3d5a <_printf_i+0x1f2>
    3c9c:	0648      	lsls	r0, r1, #25
    3c9e:	d5da      	bpl.n	3c56 <_printf_i+0xee>
    3ca0:	b2ad      	uxth	r5, r5
    3ca2:	e7d8      	b.n	3c56 <_printf_i+0xee>
    3ca4:	6809      	ldr	r1, [r1, #0]
    3ca6:	681a      	ldr	r2, [r3, #0]
    3ca8:	0608      	lsls	r0, r1, #24
    3caa:	d505      	bpl.n	3cb8 <_printf_i+0x150>
    3cac:	1d11      	adds	r1, r2, #4
    3cae:	6019      	str	r1, [r3, #0]
    3cb0:	6813      	ldr	r3, [r2, #0]
    3cb2:	6962      	ldr	r2, [r4, #20]
    3cb4:	601a      	str	r2, [r3, #0]
    3cb6:	e006      	b.n	3cc6 <_printf_i+0x15e>
    3cb8:	0649      	lsls	r1, r1, #25
    3cba:	d5f7      	bpl.n	3cac <_printf_i+0x144>
    3cbc:	1d11      	adds	r1, r2, #4
    3cbe:	6019      	str	r1, [r3, #0]
    3cc0:	6813      	ldr	r3, [r2, #0]
    3cc2:	8aa2      	ldrh	r2, [r4, #20]
    3cc4:	801a      	strh	r2, [r3, #0]
    3cc6:	2300      	movs	r3, #0
    3cc8:	9e04      	ldr	r6, [sp, #16]
    3cca:	6123      	str	r3, [r4, #16]
    3ccc:	e054      	b.n	3d78 <_printf_i+0x210>
    3cce:	681a      	ldr	r2, [r3, #0]
    3cd0:	1d11      	adds	r1, r2, #4
    3cd2:	6019      	str	r1, [r3, #0]
    3cd4:	6816      	ldr	r6, [r2, #0]
    3cd6:	2100      	movs	r1, #0
    3cd8:	6862      	ldr	r2, [r4, #4]
    3cda:	0030      	movs	r0, r6
    3cdc:	f000 f87c 	bl	3dd8 <memchr>
    3ce0:	2800      	cmp	r0, #0
    3ce2:	d001      	beq.n	3ce8 <_printf_i+0x180>
    3ce4:	1b80      	subs	r0, r0, r6
    3ce6:	6060      	str	r0, [r4, #4]
    3ce8:	6863      	ldr	r3, [r4, #4]
    3cea:	6123      	str	r3, [r4, #16]
    3cec:	2300      	movs	r3, #0
    3cee:	9a04      	ldr	r2, [sp, #16]
    3cf0:	7013      	strb	r3, [r2, #0]
    3cf2:	e041      	b.n	3d78 <_printf_i+0x210>
    3cf4:	6923      	ldr	r3, [r4, #16]
    3cf6:	0032      	movs	r2, r6
    3cf8:	9906      	ldr	r1, [sp, #24]
    3cfa:	9805      	ldr	r0, [sp, #20]
    3cfc:	9d07      	ldr	r5, [sp, #28]
    3cfe:	47a8      	blx	r5
    3d00:	1c43      	adds	r3, r0, #1
    3d02:	d043      	beq.n	3d8c <_printf_i+0x224>
    3d04:	6823      	ldr	r3, [r4, #0]
    3d06:	2500      	movs	r5, #0
    3d08:	079b      	lsls	r3, r3, #30
    3d0a:	d40f      	bmi.n	3d2c <_printf_i+0x1c4>
    3d0c:	9b09      	ldr	r3, [sp, #36]	; 0x24
    3d0e:	68e0      	ldr	r0, [r4, #12]
    3d10:	4298      	cmp	r0, r3
    3d12:	da3d      	bge.n	3d90 <_printf_i+0x228>
    3d14:	0018      	movs	r0, r3
    3d16:	e03b      	b.n	3d90 <_printf_i+0x228>
    3d18:	0022      	movs	r2, r4
    3d1a:	2301      	movs	r3, #1
    3d1c:	3219      	adds	r2, #25
    3d1e:	9906      	ldr	r1, [sp, #24]
    3d20:	9805      	ldr	r0, [sp, #20]
    3d22:	9e07      	ldr	r6, [sp, #28]
    3d24:	47b0      	blx	r6
    3d26:	1c43      	adds	r3, r0, #1
    3d28:	d030      	beq.n	3d8c <_printf_i+0x224>
    3d2a:	3501      	adds	r5, #1
    3d2c:	68e3      	ldr	r3, [r4, #12]
    3d2e:	9a09      	ldr	r2, [sp, #36]	; 0x24
    3d30:	1a9b      	subs	r3, r3, r2
    3d32:	429d      	cmp	r5, r3
    3d34:	dbf0      	blt.n	3d18 <_printf_i+0x1b0>
    3d36:	e7e9      	b.n	3d0c <_printf_i+0x1a4>
    3d38:	2d00      	cmp	r5, #0
    3d3a:	d0a9      	beq.n	3c90 <_printf_i+0x128>
    3d3c:	9e04      	ldr	r6, [sp, #16]
    3d3e:	0028      	movs	r0, r5
    3d40:	0039      	movs	r1, r7
    3d42:	f7ff fb93 	bl	346c <__aeabi_uidivmod>
    3d46:	9b03      	ldr	r3, [sp, #12]
    3d48:	3e01      	subs	r6, #1
    3d4a:	5c5b      	ldrb	r3, [r3, r1]
    3d4c:	0028      	movs	r0, r5
    3d4e:	7033      	strb	r3, [r6, #0]
    3d50:	0039      	movs	r1, r7
    3d52:	f7ff fb05 	bl	3360 <__udivsi3>
    3d56:	1e05      	subs	r5, r0, #0
    3d58:	d1f1      	bne.n	3d3e <_printf_i+0x1d6>
    3d5a:	2f08      	cmp	r7, #8
    3d5c:	d109      	bne.n	3d72 <_printf_i+0x20a>
    3d5e:	6823      	ldr	r3, [r4, #0]
    3d60:	07db      	lsls	r3, r3, #31
    3d62:	d506      	bpl.n	3d72 <_printf_i+0x20a>
    3d64:	6863      	ldr	r3, [r4, #4]
    3d66:	6922      	ldr	r2, [r4, #16]
    3d68:	4293      	cmp	r3, r2
    3d6a:	dc02      	bgt.n	3d72 <_printf_i+0x20a>
    3d6c:	2330      	movs	r3, #48	; 0x30
    3d6e:	3e01      	subs	r6, #1
    3d70:	7033      	strb	r3, [r6, #0]
    3d72:	9b04      	ldr	r3, [sp, #16]
    3d74:	1b9b      	subs	r3, r3, r6
    3d76:	6123      	str	r3, [r4, #16]
    3d78:	9b07      	ldr	r3, [sp, #28]
    3d7a:	aa09      	add	r2, sp, #36	; 0x24
    3d7c:	9300      	str	r3, [sp, #0]
    3d7e:	0021      	movs	r1, r4
    3d80:	9b06      	ldr	r3, [sp, #24]
    3d82:	9805      	ldr	r0, [sp, #20]
    3d84:	f7ff fe82 	bl	3a8c <_printf_common>
    3d88:	1c43      	adds	r3, r0, #1
    3d8a:	d1b3      	bne.n	3cf4 <_printf_i+0x18c>
    3d8c:	2001      	movs	r0, #1
    3d8e:	4240      	negs	r0, r0
    3d90:	b00b      	add	sp, #44	; 0x2c
    3d92:	bdf0      	pop	{r4, r5, r6, r7, pc}
    3d94:	0000446c 	.word	0x0000446c
    3d98:	0000445b 	.word	0x0000445b

00003d9c <_sbrk_r>:
    3d9c:	2300      	movs	r3, #0
    3d9e:	b570      	push	{r4, r5, r6, lr}
    3da0:	4c06      	ldr	r4, [pc, #24]	; (3dbc <_sbrk_r+0x20>)
    3da2:	0005      	movs	r5, r0
    3da4:	0008      	movs	r0, r1
    3da6:	6023      	str	r3, [r4, #0]
    3da8:	f7fc fe6a 	bl	a80 <_sbrk>
    3dac:	1c43      	adds	r3, r0, #1
    3dae:	d103      	bne.n	3db8 <_sbrk_r+0x1c>
    3db0:	6823      	ldr	r3, [r4, #0]
    3db2:	2b00      	cmp	r3, #0
    3db4:	d000      	beq.n	3db8 <_sbrk_r+0x1c>
    3db6:	602b      	str	r3, [r5, #0]
    3db8:	bd70      	pop	{r4, r5, r6, pc}
    3dba:	46c0      	nop			; (mov r8, r8)
    3dbc:	2000067c 	.word	0x2000067c

00003dc0 <__ascii_wctomb>:
    3dc0:	1e0b      	subs	r3, r1, #0
    3dc2:	d004      	beq.n	3dce <__ascii_wctomb+0xe>
    3dc4:	2aff      	cmp	r2, #255	; 0xff
    3dc6:	d904      	bls.n	3dd2 <__ascii_wctomb+0x12>
    3dc8:	238a      	movs	r3, #138	; 0x8a
    3dca:	6003      	str	r3, [r0, #0]
    3dcc:	3b8b      	subs	r3, #139	; 0x8b
    3dce:	0018      	movs	r0, r3
    3dd0:	4770      	bx	lr
    3dd2:	700a      	strb	r2, [r1, #0]
    3dd4:	2301      	movs	r3, #1
    3dd6:	e7fa      	b.n	3dce <__ascii_wctomb+0xe>

00003dd8 <memchr>:
    3dd8:	b2c9      	uxtb	r1, r1
    3dda:	1882      	adds	r2, r0, r2
    3ddc:	4290      	cmp	r0, r2
    3dde:	d101      	bne.n	3de4 <memchr+0xc>
    3de0:	2000      	movs	r0, #0
    3de2:	4770      	bx	lr
    3de4:	7803      	ldrb	r3, [r0, #0]
    3de6:	428b      	cmp	r3, r1
    3de8:	d0fb      	beq.n	3de2 <memchr+0xa>
    3dea:	3001      	adds	r0, #1
    3dec:	e7f6      	b.n	3ddc <memchr+0x4>

00003dee <memmove>:
    3dee:	b510      	push	{r4, lr}
    3df0:	4288      	cmp	r0, r1
    3df2:	d902      	bls.n	3dfa <memmove+0xc>
    3df4:	188b      	adds	r3, r1, r2
    3df6:	4298      	cmp	r0, r3
    3df8:	d308      	bcc.n	3e0c <memmove+0x1e>
    3dfa:	2300      	movs	r3, #0
    3dfc:	429a      	cmp	r2, r3
    3dfe:	d007      	beq.n	3e10 <memmove+0x22>
    3e00:	5ccc      	ldrb	r4, [r1, r3]
    3e02:	54c4      	strb	r4, [r0, r3]
    3e04:	3301      	adds	r3, #1
    3e06:	e7f9      	b.n	3dfc <memmove+0xe>
    3e08:	5c8b      	ldrb	r3, [r1, r2]
    3e0a:	5483      	strb	r3, [r0, r2]
    3e0c:	3a01      	subs	r2, #1
    3e0e:	d2fb      	bcs.n	3e08 <memmove+0x1a>
    3e10:	bd10      	pop	{r4, pc}

00003e12 <__malloc_lock>:
    3e12:	4770      	bx	lr

00003e14 <__malloc_unlock>:
    3e14:	4770      	bx	lr
	...

00003e18 <_free_r>:
    3e18:	b570      	push	{r4, r5, r6, lr}
    3e1a:	0005      	movs	r5, r0
    3e1c:	2900      	cmp	r1, #0
    3e1e:	d010      	beq.n	3e42 <_free_r+0x2a>
    3e20:	1f0c      	subs	r4, r1, #4
    3e22:	6823      	ldr	r3, [r4, #0]
    3e24:	2b00      	cmp	r3, #0
    3e26:	da00      	bge.n	3e2a <_free_r+0x12>
    3e28:	18e4      	adds	r4, r4, r3
    3e2a:	0028      	movs	r0, r5
    3e2c:	f7ff fff1 	bl	3e12 <__malloc_lock>
    3e30:	4a1d      	ldr	r2, [pc, #116]	; (3ea8 <_free_r+0x90>)
    3e32:	6813      	ldr	r3, [r2, #0]
    3e34:	2b00      	cmp	r3, #0
    3e36:	d105      	bne.n	3e44 <_free_r+0x2c>
    3e38:	6063      	str	r3, [r4, #4]
    3e3a:	6014      	str	r4, [r2, #0]
    3e3c:	0028      	movs	r0, r5
    3e3e:	f7ff ffe9 	bl	3e14 <__malloc_unlock>
    3e42:	bd70      	pop	{r4, r5, r6, pc}
    3e44:	42a3      	cmp	r3, r4
    3e46:	d909      	bls.n	3e5c <_free_r+0x44>
    3e48:	6821      	ldr	r1, [r4, #0]
    3e4a:	1860      	adds	r0, r4, r1
    3e4c:	4283      	cmp	r3, r0
    3e4e:	d1f3      	bne.n	3e38 <_free_r+0x20>
    3e50:	6818      	ldr	r0, [r3, #0]
    3e52:	685b      	ldr	r3, [r3, #4]
    3e54:	1841      	adds	r1, r0, r1
    3e56:	6021      	str	r1, [r4, #0]
    3e58:	e7ee      	b.n	3e38 <_free_r+0x20>
    3e5a:	0013      	movs	r3, r2
    3e5c:	685a      	ldr	r2, [r3, #4]
    3e5e:	2a00      	cmp	r2, #0
    3e60:	d001      	beq.n	3e66 <_free_r+0x4e>
    3e62:	42a2      	cmp	r2, r4
    3e64:	d9f9      	bls.n	3e5a <_free_r+0x42>
    3e66:	6819      	ldr	r1, [r3, #0]
    3e68:	1858      	adds	r0, r3, r1
    3e6a:	42a0      	cmp	r0, r4
    3e6c:	d10b      	bne.n	3e86 <_free_r+0x6e>
    3e6e:	6820      	ldr	r0, [r4, #0]
    3e70:	1809      	adds	r1, r1, r0
    3e72:	1858      	adds	r0, r3, r1
    3e74:	6019      	str	r1, [r3, #0]
    3e76:	4282      	cmp	r2, r0
    3e78:	d1e0      	bne.n	3e3c <_free_r+0x24>
    3e7a:	6810      	ldr	r0, [r2, #0]
    3e7c:	6852      	ldr	r2, [r2, #4]
    3e7e:	1841      	adds	r1, r0, r1
    3e80:	6019      	str	r1, [r3, #0]
    3e82:	605a      	str	r2, [r3, #4]
    3e84:	e7da      	b.n	3e3c <_free_r+0x24>
    3e86:	42a0      	cmp	r0, r4
    3e88:	d902      	bls.n	3e90 <_free_r+0x78>
    3e8a:	230c      	movs	r3, #12
    3e8c:	602b      	str	r3, [r5, #0]
    3e8e:	e7d5      	b.n	3e3c <_free_r+0x24>
    3e90:	6821      	ldr	r1, [r4, #0]
    3e92:	1860      	adds	r0, r4, r1
    3e94:	4282      	cmp	r2, r0
    3e96:	d103      	bne.n	3ea0 <_free_r+0x88>
    3e98:	6810      	ldr	r0, [r2, #0]
    3e9a:	6852      	ldr	r2, [r2, #4]
    3e9c:	1841      	adds	r1, r0, r1
    3e9e:	6021      	str	r1, [r4, #0]
    3ea0:	6062      	str	r2, [r4, #4]
    3ea2:	605c      	str	r4, [r3, #4]
    3ea4:	e7ca      	b.n	3e3c <_free_r+0x24>
    3ea6:	46c0      	nop			; (mov r8, r8)
    3ea8:	200005f4 	.word	0x200005f4

00003eac <_realloc_r>:
    3eac:	b5f8      	push	{r3, r4, r5, r6, r7, lr}
    3eae:	0007      	movs	r7, r0
    3eb0:	000d      	movs	r5, r1
    3eb2:	0016      	movs	r6, r2
    3eb4:	2900      	cmp	r1, #0
    3eb6:	d105      	bne.n	3ec4 <_realloc_r+0x18>
    3eb8:	0011      	movs	r1, r2
    3eba:	f7ff fc23 	bl	3704 <_malloc_r>
    3ebe:	0004      	movs	r4, r0
    3ec0:	0020      	movs	r0, r4
    3ec2:	bdf8      	pop	{r3, r4, r5, r6, r7, pc}
    3ec4:	2a00      	cmp	r2, #0
    3ec6:	d103      	bne.n	3ed0 <_realloc_r+0x24>
    3ec8:	f7ff ffa6 	bl	3e18 <_free_r>
    3ecc:	0034      	movs	r4, r6
    3ece:	e7f7      	b.n	3ec0 <_realloc_r+0x14>
    3ed0:	f000 f812 	bl	3ef8 <_malloc_usable_size_r>
    3ed4:	002c      	movs	r4, r5
    3ed6:	4286      	cmp	r6, r0
    3ed8:	d9f2      	bls.n	3ec0 <_realloc_r+0x14>
    3eda:	0031      	movs	r1, r6
    3edc:	0038      	movs	r0, r7
    3ede:	f7ff fc11 	bl	3704 <_malloc_r>
    3ee2:	1e04      	subs	r4, r0, #0
    3ee4:	d0ec      	beq.n	3ec0 <_realloc_r+0x14>
    3ee6:	0029      	movs	r1, r5
    3ee8:	0032      	movs	r2, r6
    3eea:	f7ff fae9 	bl	34c0 <memcpy>
    3eee:	0029      	movs	r1, r5
    3ef0:	0038      	movs	r0, r7
    3ef2:	f7ff ff91 	bl	3e18 <_free_r>
    3ef6:	e7e3      	b.n	3ec0 <_realloc_r+0x14>

00003ef8 <_malloc_usable_size_r>:
    3ef8:	1f0b      	subs	r3, r1, #4
    3efa:	681b      	ldr	r3, [r3, #0]
    3efc:	1f18      	subs	r0, r3, #4
    3efe:	2b00      	cmp	r3, #0
    3f00:	da01      	bge.n	3f06 <_malloc_usable_size_r+0xe>
    3f02:	580b      	ldr	r3, [r1, r0]
    3f04:	18c0      	adds	r0, r0, r3
    3f06:	4770      	bx	lr
    3f08:	682f2e2e 	.word	0x682f2e2e
    3f0c:	752f6c61 	.word	0x752f6c61
    3f10:	736c6974 	.word	0x736c6974
    3f14:	6372732f 	.word	0x6372732f
    3f18:	6974752f 	.word	0x6974752f
    3f1c:	6c5f736c 	.word	0x6c5f736c
    3f20:	2e747369 	.word	0x2e747369
    3f24:	0063      	.short	0x0063
    3f26:	2000      	.short	0x2000

00003f28 <_usb_ep_cfgs>:
    3f28:	0494 2000 0000 0000 0040 0000 0454 2000     ... ....@...T.. 
    3f38:	0000 0000 0040 0000 0414 2000 0000 0000     ....@...... ....
    3f48:	0040 0000                                   @...

00003f4c <debug_leds>:
    3f4c:	0001 0002 0004 0008 0010 0020 0040 0080     .......... .@...
    3f5c:	0100 0200 0400 0000 2008 0008 4f43 4e55     ......... ..COUN
    3f6c:	3a54 2520 756c 0a0d 0000 0000 2b84 0000     T: %lu.......+..
    3f7c:	286c 0000 2b84 0000 289e 0000 2b84 0000     l(...+...(...+..
    3f8c:	27c2 0000 2b84 0000 2b84 0000 2b84 0000     .'...+...+...+..
    3f9c:	27d6 0000 2b84 0000 28d2 0000 2e2e 752f     .'...+...(..../u
    3fac:	6273 642f 7665 6369 2f65 7375 6462 2e63     sb/device/usbdc.
    3fbc:	0063 0000 7c27 5c7c 2020 2f20 7c7c 2060     c...'||\   /||` 
    3fcc:	277c 7c27 277c 7c27 2720 7c7c 2727 2727     |''||''| '||''''
    3fdc:	207c 7c2e 2727 2727 202c 7c27 207c 7c20     | .|'''', '||  |
    3fec:	607c 0d20 000a 0000 7c20 5c7c 2f2e 202f     |` ..... ||\.// 
    3ffc:	7c7c 2020 2020 7c20 207c 2020 2020 7c7c     ||     ||     ||
    400c:	2020 2e20 2020 7c7c 2020 2020 2020 7c20        .  ||       |
    401c:	207c 7c20 207c 0d20 000a 0000 7c20 207c     |  ||  ..... || 
    402c:	2020 2020 7c7c 2020 2020 7c20 207c 2020         ||     ||   
    403c:	2020 7c7c 2727 7c27 2020 7c7c 2020 2020       ||'''|  ||    
    404c:	2020 7c20 277c 7c27 207c 0d20 000a 0000        ||''||  .....
    405c:	7c20 207c 2020 2020 7c7c 2020 2020 7c20      ||     ||     |
    406c:	207c 2020 2020 7c7c 2020 2020 2020 7c7c     |     ||      ||
    407c:	2020 2020 2020 7c20 207c 7c20 207c 0d20            ||  ||  .
    408c:	000a 0000 7c2e 207c 2020 2020 7c7c 202e     .....||     ||. 
    409c:	2020 7c2e 2e7c 2020 2e20 7c7c 2e2e 2e2e       .||.   .||....
    40ac:	207c 7c60 2e2e 2e2e 2027 7c2e 207c 7c20     | `|....' .||  |
    40bc:	2e7c 0d20 000a 0000 0a0d 6f4d 746e 6e61     |. .......Montan
    40cc:	2061 6554 6863 4520 656c 7463 6972 6163     a Tech Electrica
    40dc:	206c 6e45 6967 656e 7265 6e69 2067 6942     l Engineering Bi
    40ec:	616e 7972 4320 756f 746e 7265 0a0d 0000     nary Counter....
    40fc:	0a0d 5043 3a55 4120 5354 4d41 3244 4531     ..CPU: ATSAMD21E
    410c:	3531 0d42 000a 0000 6c43 636f 206b 7053     15B.....Clock Sp
    411c:	6565 3a64 3420 2038 484d 207a 4b4f 0a0d     eed: 48 MHz OK..
    412c:	0000 0000 7954 6570 2720 6568 706c 2027     ....Type 'help' 
    413c:	6f66 2072 6f63 6d6d 6e61 2064 6e69 6f66     for command info
    414c:	0d2e 000a 5453 504f 0000 0000 4f43 4e55     ....STOP....COUN
    415c:	0054 0000 5453 5241 0054 0000 4553 2054     T...START...SET 
    416c:	0000 0000 5245 0d52 000a 0000 4544 5542     ....ERR.....DEBU
    417c:	0047 0000 5053 4545 2044 0000 4548 504c     G...SPEED ..HELP
    418c:	0000 0000 0a0d 0a0a 0000 0000 2a2a 2a2a     ............****
    419c:	2a2a 2a2a 2a2a 2a2a 2a2a 2a2a 2a2a 2a2a     ****************
    41ac:	2a2a 2a2a 2a2a 2a2a 2a2a 2a2a 2a2a 2a2a     ****************
    41bc:	2a2a 2a2a 2a2a 0d2a 000a 0000 5f20 205f     *******..... __ 
    41cc:	2020 5f5f 2020 5f5f 5f5f 5f5f 205f 5f20       __  _______  _
    41dc:	5f5f 2020 2020 2020 5f5f 5f5f 5f5f 205f     __      _______ 
    41ec:	0a0d 0000 207c 7c20 7c20 2020 7c7c 2020     ....|  | |  ||  
    41fc:	2020 2020 7c20 207c 2020 207c 2020 7c20          ||   |    |
    420c:	2020 2020 2020 7c20 0a0d 0000 207c 7c20            |....|  |
    421c:	7c5f 2020 7c7c 2020 2020 5f5f 7c5f 207c     _|  ||    ___|| 
    422c:	2020 207c 2020 7c20 2020 2020 205f 7c20       |    |    _  |
    423c:	0a0d 0000 207c 2020 2020 2020 7c7c 2020     ....|       ||  
    424c:	7c20 5f5f 205f 207c 2020 207c 2020 7c20      |___ |   |    |
    425c:	2020 7c20 7c5f 7c20 0a0d 0000 207c 2020        |_| |....|   
    426c:	2020 2020 7c7c 2020 2020 5f5f 7c5f 207c         ||    ___|| 
    427c:	2020 5f7c 5f5f 7c20 2020 2020 5f5f 7c5f       |___ |    ___|
    428c:	0a0d 0000 207c 2020 205f 2020 7c7c 2020     ....|   _   ||  
    429c:	7c20 5f5f 205f 207c 2020 2020 2020 7c7c      |___ |       ||
    42ac:	2020 7c20 2020 2020 0a0d 0000 5f7c 7c5f        |    ....|__|
    42bc:	7c20 5f5f 7c7c 5f5f 5f5f 5f5f 7c5f 5f7c      |__||_______||_
    42cc:	5f5f 5f5f 5f5f 7c7c 5f5f 7c5f 2020 2020     ______||___|    
    42dc:	0a0d 0000 2a2a 2a2a 2a2a 2a2a 2a2a 2a2a     ....************
    42ec:	2a2a 2a2a 2a2a 2a2a 2a2a 2a2a 2a2a 2a2a     ****************
    42fc:	2a2a 2a2a 2a2a 2a2a 2a2a 2a2a 2a2a 0d2a     ***************.
    430c:	0a0a 000a 6f43 6d6d 6e61 7364 0d3a 000a     ....Commands:...
    431c:	4553 2054 202d 6553 7374 7420 6568 6320     SET - Sets the c
    432c:	756f 746e 7265 7420 206f 2061 6967 6576     ounter to a give
    433c:	206e 6176 756c 2065 203c 3031 3432 2820     n value < 1024 (
    434c:	6564 6963 616d 206c 726f 6820 7865 2e29     decimal or hex).
    435c:	0a0d 0000 5453 5241 2f54 4f43 4e55 2054     ....START/COUNT 
    436c:	202d 7453 7261 7374 7420 6568 6320 756f     - Starts the cou
    437c:	746e 7265 0d2e 000a 5453 504f 2d20 5320     nter....STOP - S
    438c:	6f74 7370 7420 6568 6320 756f 746e 7265     tops the counter
    439c:	0d2e 000a 5053 4545 2044 202d 6553 7374     ....SPEED - Sets
    43ac:	7420 6568 6320 756f 746e 7320 6570 6465      the count speed
    43bc:	2820 736d 2029 666f 7420 6568 6220 6e69      (ms) of the bin
    43cc:	7261 2079 6f63 6e75 6574 0d72 000a 0000     ary counter.....
    43dc:	0d3f 000a                                   ?...

000043e0 <__sf_fake_stderr>:
	...

00004400 <__sf_fake_stdin>:
	...

00004420 <__sf_fake_stdout>:
	...
    4440:	0043 4f50 4953 0058 002e 2d23 2b30 0020     C.POSIX...#-0+ .
    4450:	6c68 004c 6665 4567 4746 3000 3231 3433     hlL.efgEFG.01234
    4460:	3635 3837 4139 4342 4544 0046 3130 3332     56789ABCDEF.0123
    4470:	3534 3736 3938 6261 6463 6665 0000               456789abcdef.

0000447d <_ctype_>:
    447d:	2000 2020 2020 2020 2020 2828 2828 2028     .         ((((( 
    448d:	2020 2020 2020 2020 2020 2020 2020 2020                     
    449d:	8820 1010 1010 1010 1010 1010 1010 1010      ...............
    44ad:	0410 0404 0404 0404 0404 1004 1010 1010     ................
    44bd:	1010 4141 4141 4141 0101 0101 0101 0101     ..AAAAAA........
    44cd:	0101 0101 0101 0101 0101 0101 1010 1010     ................
    44dd:	1010 4242 4242 4242 0202 0202 0202 0202     ..BBBBBB........
    44ed:	0202 0202 0202 0202 0202 0202 1010 1010     ................
    44fd:	0020 0000 0000 0000 0000 0000 0000 0000      ...............
	...

00004580 <_init>:
    4580:	b5f8      	push	{r3, r4, r5, r6, r7, lr}
    4582:	46c0      	nop			; (mov r8, r8)
    4584:	bcf8      	pop	{r3, r4, r5, r6, r7}
    4586:	bc08      	pop	{r3}
    4588:	469e      	mov	lr, r3
    458a:	4770      	bx	lr

0000458c <__init_array_start>:
    458c:	000000dd 	.word	0x000000dd

00004590 <_fini>:
    4590:	b5f8      	push	{r3, r4, r5, r6, r7, lr}
    4592:	46c0      	nop			; (mov r8, r8)
    4594:	bcf8      	pop	{r3, r4, r5, r6, r7}
    4596:	bc08      	pop	{r3}
    4598:	469e      	mov	lr, r3
    459a:	4770      	bx	lr

0000459c <__fini_array_start>:
    459c:	000000b5 	.word	0x000000b5
